
Final_Project.elf:     file format elf32-littlenios2
Final_Project.elf
architecture: nios2, flags 0x00000112:
EXEC_P, HAS_SYMS, D_PAGED
start address 0x080001b4

Program Header:
    LOAD off    0x00001000 vaddr 0x00000000 paddr 0x00000000 align 2**12
         filesz 0x00000000 memsz 0x00000000 flags r-x
    LOAD off    0x00001020 vaddr 0x08000020 paddr 0x08000020 align 2**12
         filesz 0x0001ab38 memsz 0x00192f38 flags rwx

Sections:
Idx Name          Size      VMA       LMA       File off  Algn
  0 .entry        00000000  00000000  00000000  00001000  2**5
                  CONTENTS, ALLOC, LOAD, READONLY, CODE
  1 .exceptions   00000194  08000020  08000020  00001020  2**2
                  CONTENTS, ALLOC, LOAD, READONLY, CODE
  2 .text         00017a38  080001b4  080001b4  000011b4  2**2
                  CONTENTS, ALLOC, LOAD, READONLY, CODE
  3 .rodata       00001230  08017bec  08017bec  00018bec  2**2
                  CONTENTS, ALLOC, LOAD, READONLY, DATA
  4 .rwdata       00001d3c  08018e1c  08018e1c  00019e1c  2**2
                  CONTENTS, ALLOC, LOAD, DATA, SMALL_DATA
  5 .bss          00178611  0801ab58  0801ab58  0001bb58  2**2
                  ALLOC, SMALL_DATA
  6 .comment      00000026  00000000  00000000  0001bb58  2**0
                  CONTENTS, READONLY
  7 .debug_aranges 000012f0  00000000  00000000  0001bb80  2**3
                  CONTENTS, READONLY, DEBUGGING
  8 .debug_pubnames 000023fe  00000000  00000000  0001ce70  2**0
                  CONTENTS, READONLY, DEBUGGING
  9 .debug_info   000393fe  00000000  00000000  0001f26e  2**0
                  CONTENTS, READONLY, DEBUGGING
 10 .debug_abbrev 0000c2b4  00000000  00000000  0005866c  2**0
                  CONTENTS, READONLY, DEBUGGING
 11 .debug_line   0001e910  00000000  00000000  00064920  2**0
                  CONTENTS, READONLY, DEBUGGING
 12 .debug_frame  00002eac  00000000  00000000  00083230  2**2
                  CONTENTS, READONLY, DEBUGGING
 13 .debug_str    00003045  00000000  00000000  000860dc  2**0
                  CONTENTS, READONLY, DEBUGGING
 14 .debug_loc    0000f4b6  00000000  00000000  00089121  2**0
                  CONTENTS, READONLY, DEBUGGING
 15 .debug_alt_sim_info 00000040  00000000  00000000  000985d8  2**2
                  CONTENTS, READONLY, DEBUGGING
 16 .debug_ranges 00000af8  00000000  00000000  00098618  2**3
                  CONTENTS, READONLY, DEBUGGING
 17 .thread_model 00000003  00000000  00000000  0009dccc  2**0
                  CONTENTS, READONLY
 18 .cpu          00000008  00000000  00000000  0009dccf  2**0
                  CONTENTS, READONLY
 19 .qsys         00000001  00000000  00000000  0009dcd7  2**0
                  CONTENTS, READONLY
 20 .simulation_enabled 00000001  00000000  00000000  0009dcd8  2**0
                  CONTENTS, READONLY
 21 .stderr_dev   00000009  00000000  00000000  0009dcd9  2**0
                  CONTENTS, READONLY
 22 .stdin_dev    00000009  00000000  00000000  0009dce2  2**0
                  CONTENTS, READONLY
 23 .stdout_dev   00000009  00000000  00000000  0009dceb  2**0
                  CONTENTS, READONLY
 24 .sopc_system_name 00000007  00000000  00000000  0009dcf4  2**0
                  CONTENTS, READONLY
 25 .quartus_project_dir 00000039  00000000  00000000  0009dcfb  2**0
                  CONTENTS, READONLY
 26 .sopcinfo     000be657  00000000  00000000  0009dd34  2**0
                  CONTENTS, READONLY
SYMBOL TABLE:
00000000 l    d  .entry	00000000 .entry
08000020 l    d  .exceptions	00000000 .exceptions
080001b4 l    d  .text	00000000 .text
08017bec l    d  .rodata	00000000 .rodata
08018e1c l    d  .rwdata	00000000 .rwdata
0801ab58 l    d  .bss	00000000 .bss
00000000 l    d  .comment	00000000 .comment
00000000 l    d  .debug_aranges	00000000 .debug_aranges
00000000 l    d  .debug_pubnames	00000000 .debug_pubnames
00000000 l    d  .debug_info	00000000 .debug_info
00000000 l    d  .debug_abbrev	00000000 .debug_abbrev
00000000 l    d  .debug_line	00000000 .debug_line
00000000 l    d  .debug_frame	00000000 .debug_frame
00000000 l    d  .debug_str	00000000 .debug_str
00000000 l    d  .debug_loc	00000000 .debug_loc
00000000 l    d  .debug_alt_sim_info	00000000 .debug_alt_sim_info
00000000 l    d  .debug_ranges	00000000 .debug_ranges
080001e8 l       .text	00000000 alt_after_alt_main
00000000 l    df *ABS*	00000000 alt_irq_handler.c
00000000 l    df *ABS*	00000000 Adafruit_GFX.c
00000000 l    df *ABS*	00000000 NiosOledDrv.c
00000000 l    df *ABS*	00000000 hello_world.c
00000000 l    df *ABS*	00000000 wf_exp.c
00000000 l    df *ABS*	00000000 ef_exp.c
0801aaf4 l     O .rwdata	00000008 halF
0801aae4 l     O .rwdata	00000008 ln2HI
0801aaec l     O .rwdata	00000008 ln2LO
00000000 l    df *ABS*	00000000 s_lib_ver.c
00000000 l    df *ABS*	00000000 s_matherr.c
00000000 l    df *ABS*	00000000 sf_finite.c
00000000 l    df *ABS*	00000000 fp-bit.c
08004584 l     F .text	000001e4 _fpadd_parts
00000000 l    df *ABS*	00000000 fp-bit.c
00000000 l    df *ABS*	00000000 fp-bit.c
00000000 l    df *ABS*	00000000 fp-bit.c
00000000 l    df *ABS*	00000000 fp-bit.c
00000000 l    df *ABS*	00000000 fp-bit.c
00000000 l    df *ABS*	00000000 fp-bit.c
00000000 l    df *ABS*	00000000 fp-bit.c
00000000 l    df *ABS*	00000000 fp-bit.c
00000000 l    df *ABS*	00000000 dp-bit.c
08004e00 l     F .text	00000410 _fpadd_parts
00000000 l    df *ABS*	00000000 dp-bit.c
00000000 l    df *ABS*	00000000 dp-bit.c
00000000 l    df *ABS*	00000000 dp-bit.c
00000000 l    df *ABS*	00000000 dp-bit.c
00000000 l    df *ABS*	00000000 dp-bit.c
00000000 l    df *ABS*	00000000 dp-bit.c
00000000 l    df *ABS*	00000000 dp-bit.c
00000000 l    df *ABS*	00000000 dp-bit.c
00000000 l    df *ABS*	00000000 lib2-divmod.c
08005d30 l     F .text	0000007c udivmodsi4
00000000 l    df *ABS*	00000000 lib2-mul.c
00000000 l    df *ABS*	00000000 libgcc2.c
00000000 l    df *ABS*	00000000 libgcc2.c
00000000 l    df *ABS*	00000000 fp-bit.c
00000000 l    df *ABS*	00000000 fp-bit.c
00000000 l    df *ABS*	00000000 fp-bit.c
00000000 l    df *ABS*	00000000 fp-bit.c
00000000 l    df *ABS*	00000000 dp-bit.c
00000000 l    df *ABS*	00000000 dp-bit.c
00000000 l    df *ABS*	00000000 libgcc2.c
00000000 l    df *ABS*	00000000 errno.c
00000000 l    df *ABS*	00000000 exit.c
00000000 l    df *ABS*	00000000 fclose.c
00000000 l    df *ABS*	00000000 fflush.c
00000000 l    df *ABS*	00000000 findfp.c
08006b3c l     F .text	00000058 std
08006c48 l     F .text	00000008 __fp_lock
08006c50 l     F .text	00000008 __fp_unlock
00000000 l    df *ABS*	00000000 fopen.c
00000000 l    df *ABS*	00000000 fread.c
00000000 l    df *ABS*	00000000 mallocr.c
00000000 l    df *ABS*	00000000 fseek.c
00000000 l    df *ABS*	00000000 fstatr.c
00000000 l    df *ABS*	00000000 fwalk.c
00000000 l    df *ABS*	00000000 impure.c
08018e1c l     O .rwdata	00000400 impure_data
00000000 l    df *ABS*	00000000 int_errno.c
00000000 l    df *ABS*	00000000 makebuf.c
00000000 l    df *ABS*	00000000 malloc.c
00000000 l    df *ABS*	00000000 mallocr.c
00000000 l    df *ABS*	00000000 memcpy.c
00000000 l    df *ABS*	00000000 memset.c
00000000 l    df *ABS*	00000000 openr.c
00000000 l    df *ABS*	00000000 perror.c
00000000 l    df *ABS*	00000000 printf.c
00000000 l    df *ABS*	00000000 putchar.c
00000000 l    df *ABS*	00000000 puts.c
00000000 l    df *ABS*	00000000 refill.c
08008a60 l     F .text	0000001c lflush
00000000 l    df *ABS*	00000000 sbrkr.c
00000000 l    df *ABS*	00000000 stdio.c
00000000 l    df *ABS*	00000000 strerror.c
00000000 l    df *ABS*	00000000 strlen.c
00000000 l    df *ABS*	00000000 u_strerr.c
00000000 l    df *ABS*	00000000 vfprintf.c
08009328 l     F .text	00000058 __sprint_r
08018c32 l     O .rodata	00000010 blanks.3452
08018c22 l     O .rodata	00000010 zeroes.3453
00000000 l    df *ABS*	00000000 writer.c
00000000 l    df *ABS*	00000000 wsetup.c
00000000 l    df *ABS*	00000000 __call_atexit.c
0800b41c l     F .text	00000004 register_fini
00000000 l    df *ABS*	00000000 closer.c
00000000 l    df *ABS*	00000000 dtoa.c
0800b640 l     F .text	00000244 quorem
00000000 l    df *ABS*	00000000 flags.c
00000000 l    df *ABS*	00000000 fputc.c
00000000 l    df *ABS*	00000000 fputs.c
00000000 l    df *ABS*	00000000 fvwrite.c
00000000 l    df *ABS*	00000000 isattyr.c
00000000 l    df *ABS*	00000000 locale.c
0801ab14 l     O .rwdata	00000004 charset
08018c64 l     O .rodata	00000030 lconv
00000000 l    df *ABS*	00000000 lseekr.c
00000000 l    df *ABS*	00000000 memchr.c
00000000 l    df *ABS*	00000000 memmove.c
00000000 l    df *ABS*	00000000 mprec.c
08018dac l     O .rodata	0000000c p05.2458
00000000 l    df *ABS*	00000000 putc.c
00000000 l    df *ABS*	00000000 readr.c
00000000 l    df *ABS*	00000000 mallocr.c
00000000 l    df *ABS*	00000000 s_isinfd.c
00000000 l    df *ABS*	00000000 s_isnand.c
00000000 l    df *ABS*	00000000 strcmp.c
00000000 l    df *ABS*	00000000 wbuf.c
00000000 l    df *ABS*	00000000 mallocr.c
00000000 l    df *ABS*	00000000 libgcc2.c
00000000 l    df *ABS*	00000000 libgcc2.c
00000000 l    df *ABS*	00000000 dp-bit.c
00000000 l    df *ABS*	00000000 dp-bit.c
00000000 l    df *ABS*	00000000 dp-bit.c
00000000 l    df *ABS*	00000000 dp-bit.c
00000000 l    df *ABS*	00000000 dp-bit.c
00000000 l    df *ABS*	00000000 dp-bit.c
00000000 l    df *ABS*	00000000 alt_close.c
08010590 l     F .text	00000060 alt_get_errno
00000000 l    df *ABS*	00000000 alt_dev.c
080105f0 l     F .text	0000002c alt_dev_null_write
00000000 l    df *ABS*	00000000 alt_errno.c
00000000 l    df *ABS*	00000000 alt_exit.c
0801061c l     F .text	00000040 alt_sim_halt
00000000 l    df *ABS*	00000000 alt_fstat.c
08010754 l     F .text	00000060 alt_get_errno
00000000 l    df *ABS*	00000000 alt_irq_register.c
00000000 l    df *ABS*	00000000 alt_irq_vars.c
00000000 l    df *ABS*	00000000 alt_isatty.c
08010a38 l     F .text	00000060 alt_get_errno
00000000 l    df *ABS*	00000000 alt_lseek.c
08010b8c l     F .text	00000060 alt_get_errno
00000000 l    df *ABS*	00000000 alt_main.c
00000000 l    df *ABS*	00000000 alt_malloc_lock.c
00000000 l    df *ABS*	00000000 alt_open.c
08010c98 l     F .text	000000f8 alt_file_locked
08010f1c l     F .text	00000060 alt_get_errno
00000000 l    df *ABS*	00000000 alt_read.c
080110a0 l     F .text	00000060 alt_get_errno
00000000 l    df *ABS*	00000000 alt_release_fd.c
00000000 l    df *ABS*	00000000 alt_sbrk.c
0801ab34 l     O .rwdata	00000004 heap_end
00000000 l    df *ABS*	00000000 alt_write.c
08011358 l     F .text	00000060 alt_get_errno
00000000 l    df *ABS*	00000000 alt_sys_init.c
080197d8 l     O .rwdata	000000d8 ext_flash
080198b0 l     O .rwdata	000000a4 dma_priv
08019954 l     O .rwdata	0000001c dma_tx
08019970 l     O .rwdata	0000001c dma_rx
0801998c l     O .rwdata	00001060 jtag_uart
0801a9ec l     O .rwdata	000000c4 uart0
0801aab0 l     O .rwdata	00000030 altera_ro_zipfs
080114cc l     F .text	00000038 alt_dev_reg
00000000 l    df *ABS*	00000000 altera_avalon_cfi_flash.c
080115a0 l     F .text	00000038 alt_flash_device_register
00000000 l    df *ABS*	00000000 altera_avalon_cfi_flash_table.c
08012390 l     F .text	0000007c alt_read_16bit_query_entry
00000000 l    df *ABS*	00000000 altera_avalon_dma.c
080133a0 l     F .text	000000a8 alt_avalon_dma_launch_txonly
08013448 l     F .text	000000a8 alt_avalon_dma_launch_rxonly
080134f0 l     F .text	000003a4 alt_avalon_dma_ioctl
08013c44 l     F .text	000001c8 alt_avalon_dma_irq
08013ebc l     F .text	00000038 alt_dma_txchan_reg
08013ef4 l     F .text	00000038 alt_dma_rxchan_reg
00000000 l    df *ABS*	00000000 altera_avalon_jtag_uart_fd.c
00000000 l    df *ABS*	00000000 altera_avalon_jtag_uart_init.c
08014134 l     F .text	00000228 altera_avalon_jtag_uart_irq
0801435c l     F .text	000000b0 altera_avalon_jtag_uart_timeout
00000000 l    df *ABS*	00000000 altera_avalon_jtag_uart_ioctl.c
00000000 l    df *ABS*	00000000 altera_avalon_jtag_uart_read.c
00000000 l    df *ABS*	00000000 altera_avalon_jtag_uart_write.c
00000000 l    df *ABS*	00000000 altera_avalon_timer_ts.c
00000000 l    df *ABS*	00000000 altera_avalon_timer_vars.c
00000000 l    df *ABS*	00000000 altera_avalon_uart_fd.c
00000000 l    df *ABS*	00000000 altera_avalon_uart_init.c
08014d00 l     F .text	0000009c altera_avalon_uart_irq
08014d9c l     F .text	000000e0 altera_avalon_uart_rxirq
08014e7c l     F .text	0000015c altera_avalon_uart_txirq
00000000 l    df *ABS*	00000000 altera_avalon_uart_read.c
08015268 l     F .text	00000060 alt_get_errno
00000000 l    df *ABS*	00000000 altera_avalon_uart_write.c
08015490 l     F .text	00000060 alt_get_errno
00000000 l    df *ABS*	00000000 altera_ro_zipfs.c
080154f0 l     F .text	00000074 read_word
08015564 l     F .text	00000050 read_word_inc
080155b4 l     F .text	00000048 read_half_word
080155fc l     F .text	00000050 read_half_word_inc
0801564c l     F .text	00000118 check_file_header
08015890 l     F .text	000000a0 check_directory_table
08015930 l     F .text	000000ac find_directory_entry
080159dc l     F .text	00000160 find_file_entry_by_name
08015b3c l     F .text	00000180 find_file_entry
00000000 l    df *ABS*	00000000 alt_alarm_start.c
00000000 l    df *ABS*	00000000 alt_dcache_flush.c
00000000 l    df *ABS*	00000000 alt_dev_llist_insert.c
0801628c l     F .text	00000060 alt_get_errno
00000000 l    df *ABS*	00000000 alt_dma_rxchan_open.c
08016344 l     F .text	00000060 alt_get_errno
00000000 l    df *ABS*	00000000 alt_dma_txchan_open.c
080163fc l     F .text	00000060 alt_get_errno
00000000 l    df *ABS*	00000000 alt_do_ctors.c
00000000 l    df *ABS*	00000000 alt_do_dtors.c
00000000 l    df *ABS*	00000000 alt_find_dev.c
00000000 l    df *ABS*	00000000 alt_find_file.c
00000000 l    df *ABS*	00000000 alt_flash_dev.c
00000000 l    df *ABS*	00000000 alt_fs_reg.c
00000000 l    df *ABS*	00000000 alt_get_fd.c
00000000 l    df *ABS*	00000000 alt_iic.c
00000000 l    df *ABS*	00000000 alt_iic_isr_register.c
00000000 l    df *ABS*	00000000 alt_io_redirect.c
08016bd4 l     F .text	000000d8 alt_open_fd
00000000 l    df *ABS*	00000000 alt_tick.c
00000000 l    df *ABS*	00000000 altera_nios2_qsys_irq.c
00000000 l    df *ABS*	00000000 altera_avalon_cfi_flash_amd.c
08017290 l     F .text	000000bc alt_write_word_amd
08017168 l     F .text	00000128 alt_wait_for_command_to_complete_amd
00000000 l    df *ABS*	00000000 altera_avalon_cfi_flash_intel.c
08017544 l     F .text	00000190 alt_unlock_block_intel
080176d4 l     F .text	000000dc alt_write_word_intel
00000000 l    df *ABS*	00000000 alt_usleep.c
00000000 l    df *ABS*	00000000 alt_busy_sleep.c
00000000 l    df *ABS*	00000000 atexit.c
00000000 l    df *ABS*	00000000 memcmp.c
00000000 l    df *ABS*	00000000 strncmp.c
00000000 l    df *ABS*	00000000 __atexit.c
080087c4 g     F .text	0000001c putchar
0800dc3c g     F .text	00000094 _mprec_log10
0800dd28 g     F .text	00000088 __any_on
0800d4c0 g     F .text	00000070 _isatty_r
08018d84 g     O .rodata	00000028 __mprec_tinytens
08010bec g     F .text	0000006c alt_main
080087e8 g     F .text	000000a0 _puts_r
08011e50 g     F .text	00000048 alt_read_query_entry_32bit
08192cc8 g     O .bss	00000100 alt_irq
08002a50 g     F .text	00000024 stack_clear
0801ab60 g     O .bss	00000004 touch_irq
0800d5f4 g     F .text	00000078 _lseek_r
080115d8 g     F .text	000002c0 alt_flash_cfi_write
0800ce38 g     F .text	000000a0 __sflags
08010120 g     F .text	00000088 __eqdf2
08192f58 g       *ABS*	00000000 __alt_heap_start
0800874c g     F .text	00000044 printf
08002780 g     F .text	000000d8 fifo_push
08008af4 g     F .text	00000068 __sseek
08006ba4 g     F .text	000000a4 __sinit
08013e0c g     F .text	000000b0 alt_avalon_dma_init
0800f240 g     F .text	00000130 __swbuf_r
0800d554 g     F .text	00000084 _setlocale_r
08006ca4 g     F .text	0000009c __sfmoreglue
080025b4 g     F .text	00000024 OLED_Set_Pos
08010c78 g     F .text	00000020 __malloc_unlock
08004a1c g     F .text	00000174 __divsf3
08008c38 g     F .text	00000674 strerror
08002fe4 g     F .text	000001bc Softmax
0801ab94 g     O .bss	00000004 altera_avalon_timer_ts_freq
0800d750 g     F .text	000000e0 memmove
08006c94 g     F .text	00000010 _cleanup
08002738 g     F .text	00000024 is_stack_full
08002b4c g     F .text	00000054 DoEnablePIOint
0800ddb0 g     F .text	000000bc _Balloc
08004d18 g     F .text	00000094 __fixsfsi
08000c80 g     F .text	00000070 drawFastVLine
08010230 g     F .text	00000088 __gtdf2
080067a0 g     F .text	00000010 __errno
08011fdc g     F .text	00000048 alt_write_flash_command_32bit_device_16bit_mode
00000000 g     F .entry	00000000 __reset
08001ed0 g     F .text	00000064 Print
08001d78 g     F .text	00000158 Write
08007a2c g     F .text	00000074 _fstat_r
08011af4 g     F .text	000002d8 alt_flash_program_block
0801ab64 g     O .bss	00000004 errno
08005af0 g     F .text	00000038 __make_dp
08006328 g     F .text	0000002c __make_fp
0801ab88 g     O .bss	00000004 alt_argv
08022ae0 g       *ABS*	00000000 _gp
080177b0 g     F .text	00000030 usleep
08004768 g     F .text	00000070 __subsf3
080163a4 g     F .text	00000058 alt_dma_txchan_open
08019658 g     O .rwdata	00000180 alt_fd_list
08017bec g     O .rodata	000004fb font
080087e0 g     F .text	00000008 _putchar_r
08016524 g     F .text	00000094 alt_find_dev
0800851c g     F .text	000000a0 memcpy
08006c88 g     F .text	0000000c _cleanup_r
08005920 g     F .text	000000f8 __floatsidf
08008738 g     F .text	00000014 perror
080167a8 g     F .text	00000090 alt_fs_reg
0800177c g     F .text	00000184 fillRoundRect
08016cac g     F .text	00000078 alt_io_redirect
08010340 g     F .text	00000088 __ltdf2
08017bec g       *ABS*	00000000 __DTOR_END__
08008888 g     F .text	00000014 puts
08015cbc g     F .text	00000098 alt_ro_zipfs_open
08001f34 g     F .text	000002f8 drawChar
0801abc8 g     O .bss	00177000 LTMDisp
0800db8c g     F .text	000000b0 __ratio
08014574 g     F .text	00000224 altera_avalon_jtag_uart_read
08007dc8 g     F .text	00000014 malloc
08008790 g     F .text	00000034 _printf_r
08005e6c g     F .text	00000008 __udivsi3
08010974 g     F .text	000000c4 isatty
08018c94 g     O .rodata	000000c8 __mprec_tens
0800d530 g     F .text	00000008 __locale_charset
0801ab68 g     O .bss	00000004 __malloc_top_pad
08002858 g     F .text	000000c8 fifo_pop
0801ab10 g     O .rwdata	00000004 __mb_cur_max
0800d538 g     F .text	0000000c _localeconv_r
08001970 g     F .text	00000408 fillTriangle
0800e514 g     F .text	0000003c __i2b
0800d024 g     F .text	0000049c __sfvwrite_r
0800269c g     F .text	00000074 is_fifo_full
08004568 g     F .text	0000001c finitef
08008a7c g     F .text	00000070 _sbrk_r
0801734c g     F .text	00000084 alt_program_intel
0800eaa8 g     F .text	00000078 _read_r
080161b4 g     F .text	00000024 alt_dcache_flush
08019624 g     O .rwdata	0000000c __lc_ctype
0801ab28 g     O .rwdata	00000004 alt_max_fd
08011dcc g     F .text	00000040 alt_read_query_entry_8bit
08006668 g     F .text	00000138 __unpack_d
080067e8 g     F .text	00000110 _fclose_r
080173d0 g     F .text	00000174 alt_erase_block_intel
08006b08 g     F .text	00000034 fflush
0801ab6c g     O .bss	00000004 __malloc_max_sbrked_mem
08001460 g     F .text	00000298 fillCircleHelper
080107b4 g     F .text	000001c0 alt_irq_register
08004dac g     F .text	00000054 __extendsfdf2
08005290 g     F .text	00000074 __adddf3
08013280 g     F .text	00000120 alt_avalon_dma_launch_bidir
0800da6c g     F .text	00000120 __b2d
080162ec g     F .text	00000058 alt_dma_rxchan_open
0800fac0 g     F .text	00000660 __umoddi3
08010a98 g     F .text	000000f4 lseek
0801aafc g     O .rwdata	00000004 __fdlib_version
0801ab04 g     O .rwdata	00000004 _global_impure_ptr
0800eb20 g     F .text	000005f4 _realloc_r
08192f58 g       *ABS*	00000000 __bss_end
08016adc g     F .text	000000f8 alt_iic_isr_register
08016dbc g     F .text	0000010c alt_tick
08191bc8 g     O .bss	00001000 stack
0800f454 g     F .text	0000066c __udivdi3
080025f4 g     F .text	0000001c OLED_Display_Off
08018d5c g     O .rodata	00000028 __mprec_bigtens
0800e79c g     F .text	00000120 __s2b
08005b9c g     F .text	00000194 __floatunsidf
0800d98c g     F .text	00000060 __mcmp
08014c38 g     F .text	000000c8 altera_avalon_uart_init
0800226c g     F .text	00000050 setTextSize
08006c70 g     F .text	00000018 __fp_lock_all
08016a94 g     F .text	00000048 alt_ic_irq_enabled
08004204 g     F .text	0000035c __ieee754_expf
08016d24 g     F .text	00000098 alt_alarm_stop
0801ab80 g     O .bss	00000004 alt_irq_active
08015e50 g     F .text	00000148 alt_ro_zipfs_seek
080000ec g     F .exceptions	000000c8 alt_irq_handler
08019630 g     O .rwdata	00000028 alt_dev_null
080061b8 g     F .text	000000c8 __unpack_f
080122e4 g     F .text	000000ac alt_set_flash_algorithm_func
0800d858 g     F .text	00000070 __hi0bits
08005a18 g     F .text	000000d8 __fixdfsi
080025d8 g     F .text	0000001c OLED_Display_On
08011e98 g     F .text	0000003c alt_write_flash_command_8bit_device_8bit_mode
0801ab20 g     O .rwdata	00000008 alt_dev_list
08013a70 g     F .text	00000080 alt_avalon_dma_space
0800cf3c g     F .text	00000058 _fputc_r
08011234 g     F .text	00000124 write
0800e9c0 g     F .text	000000e8 _putc_r
08002710 g     F .text	00000028 is_fifo_empty
08014b18 g     F .text	00000028 alt_timestamp_freq
08004b90 g     F .text	00000078 __gtsf2
0800222c g     F .text	00000040 setCursor
0801067c g     F .text	000000d8 fstat
080131a4 g     F .text	000000dc alt_check_primary_table
0800e67c g     F .text	00000120 __pow5mult
08192bc8 g     O .bss	00000100 fifo
0801ab74 g     O .bss	00000004 __nlocale_changed
08005e74 g     F .text	00000008 __umodsi3
08011928 g     F .text	00000068 alt_flash_cfi_read
0801206c g     F .text	00000034 alt_write_native_8bit
08002a74 g     F .text	000000d8 touch_isr
080002a4 g     F .text	00000170 drawBitmap
08192f58 g       *ABS*	00000000 end
08006058 g     F .text	00000160 __pack_f
08011ed4 g     F .text	0000007c alt_write_flash_command_16bit_device_8bit_mode
08001140 g     F .text	000000b8 drawTriangle
080152c8 g     F .text	000001c8 altera_avalon_uart_write
08007a08 g     F .text	00000024 fseek
0801240c g     F .text	000005ec alt_read_cfi_table
08014074 g     F .text	000000c0 altera_avalon_jtag_uart_init
080022bc g     F .text	00000040 setTextColor
08017be8 g       *ABS*	00000000 __CTOR_LIST__
0c000000 g       *ABS*	00000000 __alt_stack_pointer
08014b98 g     F .text	00000058 altera_avalon_uart_write_fd
08005fd8 g     F .text	00000080 __clzsi2
08014bf0 g     F .text	00000048 altera_avalon_uart_close_fd
08014798 g     F .text	00000240 altera_avalon_jtag_uart_write
08011504 g     F .text	0000009c alt_flash_cfi_init
08006b94 g     F .text	00000004 __sfp_lock_acquire
0800d66c g     F .text	000000e4 memchr
08009380 g     F .text	00001ec4 ___vfprintf_internal_r
080072b8 g     F .text	00000314 _free_r
0801ab58 g     O .bss	00000004 fifo_head
08013af0 g     F .text	00000154 alt_avalon_dma_send
0800b420 g     F .text	000001b0 __call_exitprocs
0801ab40 g     O .rwdata	00000008 alt_dma_txchan_list
0801ab78 g     O .bss	00000004 __mlocale_changed
0801ab0c g     O .rwdata	00000004 __malloc_sbrk_base
080001b4 g     F .text	00000038 _start
0800232c g     F .text	0000002c getRotation
0801ab98 g     O .bss	00000004 _alt_tick_rate
08009320 g     F .text	00000008 _user_strerror
0800e174 g     F .text	0000014c __lshift
0801ab9c g     O .bss	00000004 _alt_nticks
08010f7c g     F .text	00000124 read
080113ec g     F .text	000000e0 alt_sys_init
08004c80 g     F .text	00000098 __floatsisf
08008654 g     F .text	00000078 _open_r
08017ab4 g     F .text	00000134 __register_exitproc
080179c4 g     F .text	000000f0 strncmp
08003344 g     F .text	0000011c display_probability_to_segments
08011e0c g     F .text	00000044 alt_read_query_entry_16bit
0800e2c0 g     F .text	00000254 __multiply
0801440c g     F .text	00000074 altera_avalon_jtag_uart_close
08005e7c g     F .text	00000038 __mulsi3
0801aba0 g     O .bss	00000028 __malloc_current_mallinfo
080013c0 g     F .text	000000a0 fillCircle
08012104 g     F .text	000001e0 alt_set_flash_width_func
0800de6c g     F .text	0000017c __d2b
08013f2c g     F .text	00000058 altera_avalon_jtag_uart_read_fd
08016838 g     F .text	000000d0 alt_get_fd
080177e0 g     F .text	0000015c alt_busy_sleep
080103c8 g     F .text	000000c8 __fpcmp_parts_d
08000000 g       *ABS*	00000000 __alt_mem_sdram_ctrl
0800b5d0 g     F .text	00000070 _close_r
08016f50 g     F .text	00000218 alt_erase_block_amd
0801ab5c g     O .bss	00000004 fifo_tail
08017950 g     F .text	00000074 memcmp
08013fdc g     F .text	00000048 altera_avalon_jtag_uart_close_fd
08003460 g     F .text	0000045c model_inference
08192f58 g       *ABS*	00000000 __alt_stack_base
08014024 g     F .text	00000050 altera_avalon_jtag_uart_ioctl_fd
08018108 g     O .rodata	00000011 SEG_PATTERN
08002ba0 g     F .text	000000fc print_input_data
08002ea8 g     F .text	0000013c DenseLayer
08000414 g     F .text	00000354 drawCircle
0800b2e0 g     F .text	0000013c __swsetup_r
0801aae0 g     O .rwdata	00000004 stack_top
080129f8 g     F .text	000007ac alt_read_cfi_width
080056c8 g     F .text	00000258 __divdf3
08006d40 g     F .text	000000f0 __sfp
0800dcd0 g     F .text	00000058 __copybits
0801921c g     O .rwdata	00000408 __malloc_av_
08006ba0 g     F .text	00000004 __sinit_lock_release
08005304 g     F .text	000003c4 __muldf3
08008bd8 g     F .text	00000060 __sread
08000d60 g     F .text	000000dc drawRect
080182f0 g     O .rodata	00000010 __thenan_sf
0800714c g     F .text	00000040 fread
08000768 g     F .text	00000300 drawCircleHelper
080165b8 g     F .text	00000120 alt_find_file
080161d8 g     F .text	000000b4 alt_dev_llist_insert
08010c58 g     F .text	00000020 __malloc_lock
08011178 g     F .text	000000bc sbrk
0800690c g     F .text	000001fc _fflush_r
0800f38c g     F .text	000000c8 _calloc_r
08002610 g     F .text	0000008c OLED_Clear
0801ab48 g     O .rwdata	00000008 alt_flash_dev_list
08011f98 g     F .text	00000044 alt_write_flash_command_16bit_device_16bit_mode
08000e3c g     F .text	00000304 drawRoundRect
08006f24 g     F .text	0000001c fopen
0801ab58 g       *ABS*	00000000 __bss_start
080085bc g     F .text	00000098 memset
080038bc g     F .text	0000079c main
080138d8 g     F .text	00000044 alt_avalon_dma_rx_ioctl
0801ab8c g     O .bss	00000004 alt_envp
0801ab70 g     O .bss	00000004 __malloc_max_total_mem
08013f84 g     F .text	00000058 altera_avalon_jtag_uart_write_fd
0800f370 g     F .text	0000001c __swbuf
08004c08 g     F .text	00000078 __ltsf2
08006f40 g     F .text	0000020c _fread_r
08008aec g     F .text	00000008 __sclose
08004560 g     F .text	00000008 matherr
0c000000 g       *ABS*	00000000 __alt_heap_limit
080068f8 g     F .text	00000014 fclose
08005b28 g     F .text	00000074 __truncdfsf2
080149d8 g     F .text	000000a4 alt_timestamp_start
080029b0 g     F .text	0000007c stack_pop
08192dc8 g     O .bss	00000190 _atexit0
0800b884 g     F .text	000015b4 _dtoa_r
08007ddc g     F .text	00000740 _malloc_r
0801ab2c g     O .rwdata	00000004 alt_errno
08012024 g     F .text	00000048 alt_write_flash_command_32bit_device_32bit_mode
08007b68 g     F .text	000000b8 _fwalk
08000cf0 g     F .text	00000070 drawFastHLine
08002d5c g     F .text	0000014c DenseLayerReLU
08011990 g     F .text	00000164 alt_write_value_to_flash
080120a0 g     F .text	00000034 alt_write_native_16bit
0800e8bc g     F .text	00000104 putc
08005dac g     F .text	00000060 __divsi3
08015d54 g     F .text	000000fc alt_ro_zipfs_read
08018300 g     O .rodata	00000014 __thenan_df
0800718c g     F .text	0000012c _malloc_trim_r
08017bec g       *ABS*	00000000 __CTOR_END__
0800483c g     F .text	000001e0 __mulsf3
08016008 g     F .text	00000058 alt_ro_zipfs_check_valid
0800f184 g     F .text	000000bc strcmp
08017bec g       *ABS*	00000000 __DTOR_LIST__
080101a8 g     F .text	00000088 __nedf2
08015f98 g     F .text	00000070 alt_ro_zipfs_fstat
080016f8 g     F .text	00000084 fillRect
080113b8 g     F .text	00000034 alt_irq_init
08000a68 g     F .text	00000218 drawLine
080031a0 g     F .text	000001a4 display_time_to_segments
08011100 g     F .text	00000078 alt_release_fd
08018314 g     O .rodata	00000100 __clz_tab
0801ab7c g     O .bss	00000004 _PathLocale
0801793c g     F .text	00000014 atexit
0800b268 g     F .text	00000078 _write_r
0800d5d8 g     F .text	0000001c setlocale
0801ab00 g     O .rwdata	00000004 _impure_ptr
0801ab84 g     O .bss	00000004 alt_argc
0801ab90 g     O .bss	00000004 altera_avalon_timer_ts_base
080164c0 g     F .text	00000064 _do_dtors
080075cc g     F .text	0000043c _fseek_r
0800889c g     F .text	000001c4 __srefill_r
08000020 g       .exceptions	00000000 alt_irq_entry
0800d9ec g     F .text	00000080 __ulp
0800f114 g     F .text	00000040 __isinfd
08006c58 g     F .text	00000018 __fp_unlock_all
0800ced8 g     F .text	00000064 fputc
0801ab18 g     O .rwdata	00000008 alt_fs_list
08011f50 g     F .text	00000048 alt_write_flash_command_32bit_device_8bit_mode
08002490 g     F .text	00000124 drawPixel
0800d544 g     F .text	00000010 localeconv
08014a7c g     F .text	0000009c alt_timestamp
08016908 g     F .text	00000050 alt_ic_isr_register
08002c9c g     F .text	000000c0 read_bin_file
0801ab58 g       *ABS*	00000000 _edata
08014b40 g     F .text	00000058 altera_avalon_uart_read_fd
08192f58 g       *ABS*	00000000 _end
080166d8 g     F .text	0000007c alt_flash_open_dev
08014480 g     F .text	000000f4 altera_avalon_jtag_uart_ioctl
0800cf94 g     F .text	00000074 _fputs_r
0800275c g     F .text	00000024 is_stack_empty
080169f4 g     F .text	000000a0 alt_ic_irq_disable
08008b5c g     F .text	0000007c __swrite
0801ab08 g     O .rwdata	00000004 __malloc_trim_threshold
080086cc g     F .text	0000006c _perror_r
080011f8 g     F .text	000001c8 drawXBitmap
08016ec8 g     F .text	00000020 altera_nios2_qsys_irq_init
080067b0 g     F .text	00000038 exit
08007aa0 g     F .text	000000c8 _fwalk_reent
0800dfe8 g     F .text	0000018c __mdiff
08002a2c g     F .text	00000024 fifo_clear
08016754 g     F .text	00000054 alt_flash_close_dev
08005e0c g     F .text	00000060 __modsi3
080022fc g     F .text	00000030 setTextWrap
0c000000 g       *ABS*	00000000 __alt_data_end
08000020 g     F .exceptions	00000000 alt_exception
08006b98 g     F .text	00000004 __sfp_lock_release
08002920 g     F .text	00000090 stack_push
00000000 g       *ABS*	00000000 __alt_mem_ext_flash
08014fd8 g     F .text	00000060 altera_avalon_uart_close
08006280 g     F .text	000000a8 __fpcmp_parts_f
08006e30 g     F .text	000000f4 _fopen_r
0800f154 g     F .text	00000030 __isnand
0801065c g     F .text	00000020 _exit
08004058 g     F .text	000001ac expf
08016060 g     F .text	00000154 alt_alarm_start
08005eb4 g     F .text	00000124 __muldi3
08007c20 g     F .text	00000194 __smakebuf_r
080120d4 g     F .text	00000030 alt_write_native_32bit
080092ac g     F .text	00000074 strlen
08010d90 g     F .text	0000018c open
080102b8 g     F .text	00000088 __gedf2
08011898 g     F .text	00000090 alt_flash_cfi_get_info
0800d008 g     F .text	0000001c fputs
0801ab30 g     O .rwdata	00000004 alt_priority_mask
08016958 g     F .text	0000009c alt_ic_irq_enable
0800b244 g     F .text	00000024 __vfprintf_internal
08015038 g     F .text	00000230 altera_avalon_uart_read
0801391c g     F .text	00000154 alt_avalon_dma_prepare
08005210 g     F .text	00000080 __subdf3
0801ab38 g     O .rwdata	00000008 alt_dma_rxchan_list
0800d8c8 g     F .text	000000c4 __lo0bits
0801ab50 g     O .rwdata	00000008 alt_alarm_list
0801645c g     F .text	00000064 _do_ctors
0800245c g     F .text	00000034 height
08002358 g     F .text	000000d0 setRotation
08010490 g     F .text	00000100 close
080047d8 g     F .text	00000064 __addsf3
08016ee8 g     F .text	00000068 alt_program_amd
08002428 g     F .text	00000034 width
08006354 g     F .text	00000314 __pack_d
08013894 g     F .text	00000044 alt_avalon_dma_tx_ioctl
08007db4 g     F .text	00000014 free
08006b9c g     F .text	00000004 __sinit_lock_acquire
0800e550 g     F .text	0000012c __multadd
0800d830 g     F .text	00000028 _Bfree
08001900 g     F .text	00000070 fillScreen
080001ec g     F .text	000000b8 Adafruit_GFX_init
08015764 g     F .text	0000012c check_directory_header



Disassembly of section .exceptions:

08000020 <alt_exception>:
         * Process an exception.  For all exceptions we must preserve all
         * caller saved registers on the stack (See the Nios2 ABI
         * documentation for details).
         */

        addi  sp, sp, -76
 8000020:	deffed04 	addi	sp,sp,-76

#endif

#endif

        stw   ra,  0(sp)
 8000024:	dfc00015 	stw	ra,0(sp)
        /*
         * Leave a gap in the stack frame at 4(sp) for the muldiv handler to
         * store zero into.
         */

        stw   r1,   8(sp)
 8000028:	d8400215 	stw	at,8(sp)
        stw   r2,  12(sp)
 800002c:	d8800315 	stw	r2,12(sp)
        stw   r3,  16(sp)
 8000030:	d8c00415 	stw	r3,16(sp)
        stw   r4,  20(sp)
 8000034:	d9000515 	stw	r4,20(sp)
        stw   r5,  24(sp)
 8000038:	d9400615 	stw	r5,24(sp)
        stw   r6,  28(sp)
 800003c:	d9800715 	stw	r6,28(sp)
        stw   r7,  32(sp)
 8000040:	d9c00815 	stw	r7,32(sp)

        rdctl r5, estatus
 8000044:	000b307a 	rdctl	r5,estatus

        stw   r8,  36(sp)
 8000048:	da000915 	stw	r8,36(sp)
        stw   r9,  40(sp)
 800004c:	da400a15 	stw	r9,40(sp)
        stw   r10, 44(sp)
 8000050:	da800b15 	stw	r10,44(sp)
        stw   r11, 48(sp)
 8000054:	dac00c15 	stw	r11,48(sp)
        stw   r12, 52(sp)
 8000058:	db000d15 	stw	r12,52(sp)
        stw   r13, 56(sp)
 800005c:	db400e15 	stw	r13,56(sp)
        stw   r14, 60(sp)
 8000060:	db800f15 	stw	r14,60(sp)
        stw   r15, 64(sp)
 8000064:	dbc01015 	stw	r15,64(sp)
        /*
         * ea-4 contains the address of the instruction being executed
         * when the exception occured. For interrupt exceptions, we will
         * will be re-issue the isntruction. Store it in 72(sp)
         */
        stw   r5,  68(sp)  /* estatus */
 8000068:	d9401115 	stw	r5,68(sp)
        addi  r15, ea, -4  /* instruction that caused exception */
 800006c:	ebffff04 	addi	r15,ea,-4
        stw   r15,  72(sp)
 8000070:	dbc01215 	stw	r15,72(sp)
#else
        /*
         * Test to see if the exception was a software exception or caused 
         * by an external interrupt, and vector accordingly.
         */
        rdctl r4, ipending
 8000074:	0009313a 	rdctl	r4,ipending
        andi  r2, r5, 1
 8000078:	2880004c 	andi	r2,r5,1
        beq   r2, zero, .Lnot_irq
 800007c:	10000326 	beq	r2,zero,800008c <alt_exception+0x6c>
        beq   r4, zero, .Lnot_irq
 8000080:	20000226 	beq	r4,zero,800008c <alt_exception+0x6c>
        /*
         * Now that all necessary registers have been preserved, call 
         * alt_irq_handler() to process the interrupts.
         */

        call alt_irq_handler
 8000084:	80000ec0 	call	80000ec <alt_irq_handler>

        .section .exceptions.irqreturn, "xa"

        br    .Lexception_exit
 8000088:	00000306 	br	8000098 <alt_exception+0x78>
         * upon completion, so we write ea (address of instruction *after*
         * the one where the exception occured) into 72(sp). The actual
         * instruction that caused the exception is written in r2, which these
         * handlers will utilize.
         */
        stw   ea,  72(sp)  /* Don't re-issue */
 800008c:	df401215 	stw	ea,72(sp)
        ldw   r2, -4(ea)   /* Instruction that caused exception */
 8000090:	e8bfff17 	ldw	r2,-4(ea)
#ifdef NIOS2_HAS_DEBUG_STUB
       /*
        *  Either tell the user now (if there is a debugger attached) or go into
        *  the debug monitor which will loop until a debugger is attached.
        */
        break
 8000094:	003da03a 	break	0
        /* 
         * Restore the saved registers, so that all general purpose registers 
         * have been restored to their state at the time the interrupt occured.
         */

        ldw   r5,  68(sp)
 8000098:	d9401117 	ldw	r5,68(sp)
        ldw   ea,  72(sp)  /* This becomes the PC once eret is executed */
 800009c:	df401217 	ldw	ea,72(sp)
        ldw   ra,   0(sp)
 80000a0:	dfc00017 	ldw	ra,0(sp)

        wrctl estatus, r5
 80000a4:	2801707a 	wrctl	estatus,r5

        ldw   r1,   8(sp)
 80000a8:	d8400217 	ldw	at,8(sp)
        ldw   r2,  12(sp)
 80000ac:	d8800317 	ldw	r2,12(sp)
        ldw   r3,  16(sp)
 80000b0:	d8c00417 	ldw	r3,16(sp)
        ldw   r4,  20(sp)
 80000b4:	d9000517 	ldw	r4,20(sp)
        ldw   r5,  24(sp)
 80000b8:	d9400617 	ldw	r5,24(sp)
        ldw   r6,  28(sp)
 80000bc:	d9800717 	ldw	r6,28(sp)
        ldw   r7,  32(sp)
 80000c0:	d9c00817 	ldw	r7,32(sp)
#ifdef ALT_STACK_CHECK
        ldw   et, %gprel(alt_exception_old_stack_limit)(gp)
#endif
#endif

        ldw   r8,  36(sp)
 80000c4:	da000917 	ldw	r8,36(sp)
        ldw   r9,  40(sp)
 80000c8:	da400a17 	ldw	r9,40(sp)
        ldw   r10, 44(sp)
 80000cc:	da800b17 	ldw	r10,44(sp)
        ldw   r11, 48(sp)
 80000d0:	dac00c17 	ldw	r11,48(sp)
        ldw   r12, 52(sp)
 80000d4:	db000d17 	ldw	r12,52(sp)
        ldw   r13, 56(sp)
 80000d8:	db400e17 	ldw	r13,56(sp)
        ldw   r14, 60(sp)
 80000dc:	db800f17 	ldw	r14,60(sp)
        ldw   r15, 64(sp)
 80000e0:	dbc01017 	ldw	r15,64(sp)
#endif

        ldw   sp,  76(sp)

#else
        addi  sp, sp, 76
 80000e4:	dec01304 	addi	sp,sp,76

        /*
         * Return to the interrupted instruction.
         */

        eret
 80000e8:	ef80083a 	eret

080000ec <alt_irq_handler>:
 * instruction is present if the macro ALT_CI_INTERRUPT_VECTOR defined.
 */

void alt_irq_handler (void) __attribute__ ((section (".exceptions")));
void alt_irq_handler (void)
{
 80000ec:	defff904 	addi	sp,sp,-28
 80000f0:	dfc00615 	stw	ra,24(sp)
 80000f4:	df000515 	stw	fp,20(sp)
 80000f8:	df000504 	addi	fp,sp,20
#ifndef NIOS2_EIC_PRESENT
static ALT_INLINE alt_u32 ALT_ALWAYS_INLINE alt_irq_pending (void)
{
  alt_u32 active;

  NIOS2_READ_IPENDING (active);
 80000fc:	0005313a 	rdctl	r2,ipending
 8000100:	e0bffc15 	stw	r2,-16(fp)

  return active;
 8000104:	e0bffc17 	ldw	r2,-16(fp)
   * Consider the case where the high priority interupt is asserted during
   * the interrupt entry sequence for a lower priority interrupt to see why
   * this is the case.
   */

  active = alt_irq_pending ();
 8000108:	e0bfff15 	stw	r2,-4(fp)

  do
  {
    i = 0;
 800010c:	e03ffd15 	stw	zero,-12(fp)
    mask = 1;
 8000110:	00800044 	movi	r2,1
 8000114:	e0bffe15 	stw	r2,-8(fp)
     * called to clear the interrupt condition.
     */

    do
    {
      if (active & mask)
 8000118:	e0ffff17 	ldw	r3,-4(fp)
 800011c:	e0bffe17 	ldw	r2,-8(fp)
 8000120:	1884703a 	and	r2,r3,r2
 8000124:	1005003a 	cmpeq	r2,r2,zero
 8000128:	1000161e 	bne	r2,zero,8000184 <alt_irq_handler+0x98>
      { 
#ifdef ALT_ENHANCED_INTERRUPT_API_PRESENT
        alt_irq[i].handler(alt_irq[i].context); 
 800012c:	e0bffd17 	ldw	r2,-12(fp)
 8000130:	00c20674 	movhi	r3,2073
 8000134:	18cb3204 	addi	r3,r3,11464
 8000138:	100490fa 	slli	r2,r2,3
 800013c:	10c5883a 	add	r2,r2,r3
 8000140:	11400017 	ldw	r5,0(r2)
 8000144:	e0bffd17 	ldw	r2,-12(fp)
 8000148:	00c20674 	movhi	r3,2073
 800014c:	18cb3204 	addi	r3,r3,11464
 8000150:	100490fa 	slli	r2,r2,3
 8000154:	10c5883a 	add	r2,r2,r3
 8000158:	10800104 	addi	r2,r2,4
 800015c:	11000017 	ldw	r4,0(r2)
 8000160:	283ee83a 	callr	r5
#ifndef NIOS2_EIC_PRESENT
static ALT_INLINE alt_u32 ALT_ALWAYS_INLINE alt_irq_pending (void)
{
  alt_u32 active;

  NIOS2_READ_IPENDING (active);
 8000164:	0005313a 	rdctl	r2,ipending
 8000168:	e0bffb15 	stw	r2,-20(fp)

  return active;
 800016c:	e0bffb17 	ldw	r2,-20(fp)
      mask <<= 1;
      i++;

    } while (1);

    active = alt_irq_pending ();
 8000170:	e0bfff15 	stw	r2,-4(fp)
    
  } while (active);
 8000174:	e0bfff17 	ldw	r2,-4(fp)
 8000178:	1004c03a 	cmpne	r2,r2,zero
 800017c:	103fe31e 	bne	r2,zero,800010c <alt_irq_handler+0x20>
 8000180:	00000706 	br	80001a0 <alt_irq_handler+0xb4>
#else
        alt_irq[i].handler(alt_irq[i].context, i); 
#endif
        break;
      }
      mask <<= 1;
 8000184:	e0bffe17 	ldw	r2,-8(fp)
 8000188:	1085883a 	add	r2,r2,r2
 800018c:	e0bffe15 	stw	r2,-8(fp)
      i++;
 8000190:	e0bffd17 	ldw	r2,-12(fp)
 8000194:	10800044 	addi	r2,r2,1
 8000198:	e0bffd15 	stw	r2,-12(fp)

    } while (1);
 800019c:	003fde06 	br	8000118 <alt_irq_handler+0x2c>
  /*
   * Notify the operating system that interrupt processing is complete.
   */ 

  ALT_OS_INT_EXIT();
}
 80001a0:	e037883a 	mov	sp,fp
 80001a4:	dfc00117 	ldw	ra,4(sp)
 80001a8:	df000017 	ldw	fp,0(sp)
 80001ac:	dec00204 	addi	sp,sp,8
 80001b0:	f800283a 	ret

Disassembly of section .text:

080001b4 <_start>:
#if (NIOS2_NUM_OF_SHADOW_REG_SETS == 0)    
    /*
     * Now that the caches are initialized, set up the stack pointer.
     * The value provided by the linker is assumed to be correctly aligned.
     */
    movhi sp, %hi(__alt_stack_pointer)
 80001b4:	06c30034 	movhi	sp,3072
    ori sp, sp, %lo(__alt_stack_pointer)
 80001b8:	dec00014 	ori	sp,sp,0

    /* Set up the global pointer. */
    movhi gp, %hi(_gp)
 80001bc:	068200b4 	movhi	gp,2050
    ori gp, gp, %lo(_gp)
 80001c0:	d68ab814 	ori	gp,gp,10976
 */
#ifndef ALT_SIM_OPTIMIZE
    /* Log that the BSS is about to be cleared. */
    ALT_LOG_PUTS(alt_log_msg_bss)

    movhi r2, %hi(__bss_start)
 80001c4:	00820074 	movhi	r2,2049
    ori r2, r2, %lo(__bss_start)
 80001c8:	10aad614 	ori	r2,r2,43864

    movhi r3, %hi(__bss_end)
 80001cc:	00c20674 	movhi	r3,2073
    ori r3, r3, %lo(__bss_end)
 80001d0:	18cbd614 	ori	r3,r3,12120

    beq r2, r3, 1f
 80001d4:	10c00326 	beq	r2,r3,80001e4 <_start+0x30>

0:
    stw zero, (r2)
 80001d8:	10000015 	stw	zero,0(r2)
    addi r2, r2, 4
 80001dc:	10800104 	addi	r2,r2,4
    bltu r2, r3, 0b
 80001e0:	10fffd36 	bltu	r2,r3,80001d8 <_start+0x24>

    /* Log that alt_main is about to be called. */
    ALT_LOG_PUTS(alt_log_msg_alt_main)

    /* Call the C entry point. It should never return. */
    call alt_main
 80001e4:	8010bec0 	call	8010bec <alt_main>

080001e8 <alt_after_alt_main>:

    /* Wait in infinite loop in case alt_main does return. */
alt_after_alt_main:
    br alt_after_alt_main
 80001e8:	003fff06 	br	80001e8 <alt_after_alt_main>

080001ec <Adafruit_GFX_init>:
 #define pgm_read_byte(addr) (*(const unsigned char *)(addr))
 #endif
 */

void Adafruit_GFX_init(tAdafruit_GFX *psInst, int16_t w, int16_t h, int16_t r, uint32_t  *buff)
{
 80001ec:	defffb04 	addi	sp,sp,-20
 80001f0:	df000415 	stw	fp,16(sp)
 80001f4:	df000404 	addi	fp,sp,16
 80001f8:	e13ffc15 	stw	r4,-16(fp)
 80001fc:	e17ffd0d 	sth	r5,-12(fp)
 8000200:	e1bffe0d 	sth	r6,-8(fp)
 8000204:	e1ffff0d 	sth	r7,-4(fp)
	psInst->WIDTH = w; // physical dimension - set, then do not change
 8000208:	e0fffc17 	ldw	r3,-16(fp)
 800020c:	e0bffd0b 	ldhu	r2,-12(fp)
 8000210:	1880000d 	sth	r2,0(r3)
	psInst->HEIGHT = h; // physical dimension - set, then do not change
 8000214:	e0fffc17 	ldw	r3,-16(fp)
 8000218:	e0bffe0b 	ldhu	r2,-8(fp)
 800021c:	1880008d 	sth	r2,2(r3)
	psInst->_width = w; // this reflects orientation of display
 8000220:	e0fffc17 	ldw	r3,-16(fp)
 8000224:	e0bffd0b 	ldhu	r2,-12(fp)
 8000228:	1880010d 	sth	r2,4(r3)
	psInst->_height = h; // this reflects orientation of display
 800022c:	e0fffc17 	ldw	r3,-16(fp)
 8000230:	e0bffe0b 	ldhu	r2,-8(fp)
 8000234:	1880018d 	sth	r2,6(r3)
	psInst->rotation = r; /* 0:normal, 1: rotate 90 degree */
 8000238:	e0bfff0b 	ldhu	r2,-4(fp)
 800023c:	1007883a 	mov	r3,r2
 8000240:	e0bffc17 	ldw	r2,-16(fp)
 8000244:	10c00545 	stb	r3,21(r2)
	psInst->cursor_y = 0;
 8000248:	e0bffc17 	ldw	r2,-16(fp)
 800024c:	1000028d 	sth	zero,10(r2)
	psInst->cursor_x = 0;
 8000250:	e0bffc17 	ldw	r2,-16(fp)
 8000254:	1000020d 	sth	zero,8(r2)
	psInst->textsize = 2;
 8000258:	e0fffc17 	ldw	r3,-16(fp)
 800025c:	00800084 	movi	r2,2
 8000260:	18800505 	stb	r2,20(r3)
	psInst->textcolor = 0xFFFF;
 8000264:	e0fffc17 	ldw	r3,-16(fp)
 8000268:	00bfffd4 	movui	r2,65535
 800026c:	18800315 	stw	r2,12(r3)
	psInst->textbgcolor = 0xFFFF;
 8000270:	e0fffc17 	ldw	r3,-16(fp)
 8000274:	00bfffd4 	movui	r2,65535
 8000278:	18800415 	stw	r2,16(r3)
	psInst->wrap = true;
 800027c:	e0fffc17 	ldw	r3,-16(fp)
 8000280:	00800044 	movi	r2,1
 8000284:	18800705 	stb	r2,28(r3)
	psInst->buffer = buff;
 8000288:	e0c00117 	ldw	r3,4(fp)
 800028c:	e0bffc17 	ldw	r2,-16(fp)
 8000290:	10c00615 	stw	r3,24(r2)

}
 8000294:	e037883a 	mov	sp,fp
 8000298:	df000017 	ldw	fp,0(sp)
 800029c:	dec00104 	addi	sp,sp,4
 80002a0:	f800283a 	ret

080002a4 <drawBitmap>:




void drawBitmap(tAdafruit_GFX *psInst, int16_t x, int16_t y, const uint8_t *bitmap,
		int16_t w, int16_t h, uint32_t color) {
 80002a4:	defff304 	addi	sp,sp,-52
 80002a8:	dfc00c15 	stw	ra,48(sp)
 80002ac:	df000b15 	stw	fp,44(sp)
 80002b0:	df000b04 	addi	fp,sp,44
 80002b4:	e13ff715 	stw	r4,-36(fp)
 80002b8:	e1fffa15 	stw	r7,-24(fp)
 80002bc:	e0800217 	ldw	r2,8(fp)
 80002c0:	e0c00317 	ldw	r3,12(fp)
 80002c4:	e17ff80d 	sth	r5,-32(fp)
 80002c8:	e1bff90d 	sth	r6,-28(fp)
 80002cc:	e0bffb0d 	sth	r2,-20(fp)
 80002d0:	e0fffc0d 	sth	r3,-16(fp)

	int16_t i, j, byteWidth = (w + 7) / 8;
 80002d4:	e0bffb0f 	ldh	r2,-20(fp)
 80002d8:	108001c4 	addi	r2,r2,7
 80002dc:	e0bffe15 	stw	r2,-8(fp)
 80002e0:	e0fffe17 	ldw	r3,-8(fp)
 80002e4:	1804403a 	cmpge	r2,r3,zero
 80002e8:	1000031e 	bne	r2,zero,80002f8 <drawBitmap+0x54>
 80002ec:	e0bffe17 	ldw	r2,-8(fp)
 80002f0:	108001c4 	addi	r2,r2,7
 80002f4:	e0bffe15 	stw	r2,-8(fp)
 80002f8:	e0fffe17 	ldw	r3,-8(fp)
 80002fc:	1805d0fa 	srai	r2,r3,3
 8000300:	e0bff50d 	sth	r2,-44(fp)

	for (j = 0; j < h; j++) {
 8000304:	e03ff58d 	sth	zero,-42(fp)
 8000308:	00003a06 	br	80003f4 <drawBitmap+0x150>
		for (i = 0; i < w; i++) {
 800030c:	e03ff60d 	sth	zero,-40(fp)
 8000310:	00003206 	br	80003dc <drawBitmap+0x138>
			if (bitmap[j * byteWidth + i / 8] & (128 >> (i & 7))) {
 8000314:	e13ff58f 	ldh	r4,-42(fp)
 8000318:	e17ff50f 	ldh	r5,-44(fp)
 800031c:	8005e7c0 	call	8005e7c <__mulsi3>
 8000320:	e0bffd15 	stw	r2,-12(fp)
 8000324:	e0bff60f 	ldh	r2,-40(fp)
 8000328:	e0bfff15 	stw	r2,-4(fp)
 800032c:	e0ffff17 	ldw	r3,-4(fp)
 8000330:	1804403a 	cmpge	r2,r3,zero
 8000334:	1000031e 	bne	r2,zero,8000344 <drawBitmap+0xa0>
 8000338:	e0bfff17 	ldw	r2,-4(fp)
 800033c:	108001c4 	addi	r2,r2,7
 8000340:	e0bfff15 	stw	r2,-4(fp)
 8000344:	e0ffff17 	ldw	r3,-4(fp)
 8000348:	1805d0fa 	srai	r2,r3,3
 800034c:	10bfffcc 	andi	r2,r2,65535
 8000350:	10a0001c 	xori	r2,r2,32768
 8000354:	10a00004 	addi	r2,r2,-32768
 8000358:	e0fffd17 	ldw	r3,-12(fp)
 800035c:	1885883a 	add	r2,r3,r2
 8000360:	1007883a 	mov	r3,r2
 8000364:	e0bffa17 	ldw	r2,-24(fp)
 8000368:	1885883a 	add	r2,r3,r2
 800036c:	10800003 	ldbu	r2,0(r2)
 8000370:	11003fcc 	andi	r4,r2,255
 8000374:	e0bff60b 	ldhu	r2,-40(fp)
 8000378:	10bfffcc 	andi	r2,r2,65535
 800037c:	10c001cc 	andi	r3,r2,7
 8000380:	00802004 	movi	r2,128
 8000384:	10c5d83a 	sra	r2,r2,r3
 8000388:	2084703a 	and	r2,r4,r2
 800038c:	1005003a 	cmpeq	r2,r2,zero
 8000390:	10000f1e 	bne	r2,zero,80003d0 <drawBitmap+0x12c>
				drawPixel(psInst,x + i, y + j, color);
 8000394:	e0fff80b 	ldhu	r3,-32(fp)
 8000398:	e0bff60b 	ldhu	r2,-40(fp)
 800039c:	1885883a 	add	r2,r3,r2
 80003a0:	117fffcc 	andi	r5,r2,65535
 80003a4:	2960001c 	xori	r5,r5,32768
 80003a8:	29600004 	addi	r5,r5,-32768
 80003ac:	e0fff90b 	ldhu	r3,-28(fp)
 80003b0:	e0bff58b 	ldhu	r2,-42(fp)
 80003b4:	1885883a 	add	r2,r3,r2
 80003b8:	11bfffcc 	andi	r6,r2,65535
 80003bc:	31a0001c 	xori	r6,r6,32768
 80003c0:	31a00004 	addi	r6,r6,-32768
 80003c4:	e13ff717 	ldw	r4,-36(fp)
 80003c8:	e1c00417 	ldw	r7,16(fp)
 80003cc:	80024900 	call	8002490 <drawPixel>
		int16_t w, int16_t h, uint32_t color) {

	int16_t i, j, byteWidth = (w + 7) / 8;

	for (j = 0; j < h; j++) {
		for (i = 0; i < w; i++) {
 80003d0:	e0bff60b 	ldhu	r2,-40(fp)
 80003d4:	10800044 	addi	r2,r2,1
 80003d8:	e0bff60d 	sth	r2,-40(fp)
 80003dc:	e0fff60f 	ldh	r3,-40(fp)
 80003e0:	e0bffb0f 	ldh	r2,-20(fp)
 80003e4:	18bfcb16 	blt	r3,r2,8000314 <drawBitmap+0x70>
void drawBitmap(tAdafruit_GFX *psInst, int16_t x, int16_t y, const uint8_t *bitmap,
		int16_t w, int16_t h, uint32_t color) {

	int16_t i, j, byteWidth = (w + 7) / 8;

	for (j = 0; j < h; j++) {
 80003e8:	e0bff58b 	ldhu	r2,-42(fp)
 80003ec:	10800044 	addi	r2,r2,1
 80003f0:	e0bff58d 	sth	r2,-42(fp)
 80003f4:	e0fff58f 	ldh	r3,-42(fp)
 80003f8:	e0bffc0f 	ldh	r2,-16(fp)
 80003fc:	18bfc316 	blt	r3,r2,800030c <drawBitmap+0x68>
			if (bitmap[j * byteWidth + i / 8] & (128 >> (i & 7))) {
				drawPixel(psInst,x + i, y + j, color);
			}
		}
	}
}
 8000400:	e037883a 	mov	sp,fp
 8000404:	dfc00117 	ldw	ra,4(sp)
 8000408:	df000017 	ldw	fp,0(sp)
 800040c:	dec00204 	addi	sp,sp,8
 8000410:	f800283a 	ret

08000414 <drawCircle>:

// Draw a circle outline
void drawCircle(tAdafruit_GFX *psInst, int16_t x0, int16_t y0, int16_t r,
		uint32_t color) {
 8000414:	defff704 	addi	sp,sp,-36
 8000418:	dfc00815 	stw	ra,32(sp)
 800041c:	df000715 	stw	fp,28(sp)
 8000420:	df000704 	addi	fp,sp,28
 8000424:	e13ffc15 	stw	r4,-16(fp)
 8000428:	e17ffd0d 	sth	r5,-12(fp)
 800042c:	e1bffe0d 	sth	r6,-8(fp)
 8000430:	e1ffff0d 	sth	r7,-4(fp)
	int16_t f = 1 - r;
 8000434:	e0ffff0b 	ldhu	r3,-4(fp)
 8000438:	00800044 	movi	r2,1
 800043c:	10c5c83a 	sub	r2,r2,r3
 8000440:	e0bffb0d 	sth	r2,-20(fp)
	int16_t ddF_x = 1;
 8000444:	00800044 	movi	r2,1
 8000448:	e0bffa8d 	sth	r2,-22(fp)
	int16_t ddF_y = -2 * r;
 800044c:	e0bfff0f 	ldh	r2,-4(fp)
 8000450:	1085883a 	add	r2,r2,r2
 8000454:	0085c83a 	sub	r2,zero,r2
 8000458:	e0bffa0d 	sth	r2,-24(fp)
	int16_t x = 0;
 800045c:	e03ff98d 	sth	zero,-26(fp)
	int16_t y = r;
 8000460:	e0bfff0b 	ldhu	r2,-4(fp)
 8000464:	e0bff90d 	sth	r2,-28(fp)

	drawPixel(psInst, x0, y0 + r, color);
 8000468:	e17ffd0f 	ldh	r5,-12(fp)
 800046c:	e0fffe0b 	ldhu	r3,-8(fp)
 8000470:	e0bfff0b 	ldhu	r2,-4(fp)
 8000474:	1885883a 	add	r2,r3,r2
 8000478:	11bfffcc 	andi	r6,r2,65535
 800047c:	31a0001c 	xori	r6,r6,32768
 8000480:	31a00004 	addi	r6,r6,-32768
 8000484:	e13ffc17 	ldw	r4,-16(fp)
 8000488:	e1c00217 	ldw	r7,8(fp)
 800048c:	80024900 	call	8002490 <drawPixel>
	drawPixel(psInst, x0, y0 - r, color);
 8000490:	e17ffd0f 	ldh	r5,-12(fp)
 8000494:	e0fffe0b 	ldhu	r3,-8(fp)
 8000498:	e0bfff0b 	ldhu	r2,-4(fp)
 800049c:	1885c83a 	sub	r2,r3,r2
 80004a0:	11bfffcc 	andi	r6,r2,65535
 80004a4:	31a0001c 	xori	r6,r6,32768
 80004a8:	31a00004 	addi	r6,r6,-32768
 80004ac:	e13ffc17 	ldw	r4,-16(fp)
 80004b0:	e1c00217 	ldw	r7,8(fp)
 80004b4:	80024900 	call	8002490 <drawPixel>
	drawPixel(psInst, x0 + r, y0, color);
 80004b8:	e0fffd0b 	ldhu	r3,-12(fp)
 80004bc:	e0bfff0b 	ldhu	r2,-4(fp)
 80004c0:	1885883a 	add	r2,r3,r2
 80004c4:	117fffcc 	andi	r5,r2,65535
 80004c8:	2960001c 	xori	r5,r5,32768
 80004cc:	29600004 	addi	r5,r5,-32768
 80004d0:	e1bffe0f 	ldh	r6,-8(fp)
 80004d4:	e13ffc17 	ldw	r4,-16(fp)
 80004d8:	e1c00217 	ldw	r7,8(fp)
 80004dc:	80024900 	call	8002490 <drawPixel>
	drawPixel(psInst, x0 - r, y0, color);
 80004e0:	e0fffd0b 	ldhu	r3,-12(fp)
 80004e4:	e0bfff0b 	ldhu	r2,-4(fp)
 80004e8:	1885c83a 	sub	r2,r3,r2
 80004ec:	117fffcc 	andi	r5,r2,65535
 80004f0:	2960001c 	xori	r5,r5,32768
 80004f4:	29600004 	addi	r5,r5,-32768
 80004f8:	e1bffe0f 	ldh	r6,-8(fp)
 80004fc:	e13ffc17 	ldw	r4,-16(fp)
 8000500:	e1c00217 	ldw	r7,8(fp)
 8000504:	80024900 	call	8002490 <drawPixel>

	while (x < y) {
 8000508:	00008f06 	br	8000748 <drawCircle+0x334>
		if (f >= 0) {
 800050c:	e0bffb0f 	ldh	r2,-20(fp)
 8000510:	1004803a 	cmplt	r2,r2,zero
 8000514:	10000a1e 	bne	r2,zero,8000540 <drawCircle+0x12c>
			y--;
 8000518:	e0bff90b 	ldhu	r2,-28(fp)
 800051c:	10bfffc4 	addi	r2,r2,-1
 8000520:	e0bff90d 	sth	r2,-28(fp)
			ddF_y += 2;
 8000524:	e0bffa0b 	ldhu	r2,-24(fp)
 8000528:	10800084 	addi	r2,r2,2
 800052c:	e0bffa0d 	sth	r2,-24(fp)
			f += ddF_y;
 8000530:	e0fffb0b 	ldhu	r3,-20(fp)
 8000534:	e0bffa0b 	ldhu	r2,-24(fp)
 8000538:	1885883a 	add	r2,r3,r2
 800053c:	e0bffb0d 	sth	r2,-20(fp)
		}
		x++;
 8000540:	e0bff98b 	ldhu	r2,-26(fp)
 8000544:	10800044 	addi	r2,r2,1
 8000548:	e0bff98d 	sth	r2,-26(fp)
		ddF_x += 2;
 800054c:	e0bffa8b 	ldhu	r2,-22(fp)
 8000550:	10800084 	addi	r2,r2,2
 8000554:	e0bffa8d 	sth	r2,-22(fp)
		f += ddF_x;
 8000558:	e0fffb0b 	ldhu	r3,-20(fp)
 800055c:	e0bffa8b 	ldhu	r2,-22(fp)
 8000560:	1885883a 	add	r2,r3,r2
 8000564:	e0bffb0d 	sth	r2,-20(fp)

		drawPixel(psInst,x0 + x, y0 + y, color);
 8000568:	e0fffd0b 	ldhu	r3,-12(fp)
 800056c:	e0bff98b 	ldhu	r2,-26(fp)
 8000570:	1885883a 	add	r2,r3,r2
 8000574:	117fffcc 	andi	r5,r2,65535
 8000578:	2960001c 	xori	r5,r5,32768
 800057c:	29600004 	addi	r5,r5,-32768
 8000580:	e0fffe0b 	ldhu	r3,-8(fp)
 8000584:	e0bff90b 	ldhu	r2,-28(fp)
 8000588:	1885883a 	add	r2,r3,r2
 800058c:	11bfffcc 	andi	r6,r2,65535
 8000590:	31a0001c 	xori	r6,r6,32768
 8000594:	31a00004 	addi	r6,r6,-32768
 8000598:	e13ffc17 	ldw	r4,-16(fp)
 800059c:	e1c00217 	ldw	r7,8(fp)
 80005a0:	80024900 	call	8002490 <drawPixel>
		drawPixel(psInst,x0 - x, y0 + y, color);
 80005a4:	e0fffd0b 	ldhu	r3,-12(fp)
 80005a8:	e0bff98b 	ldhu	r2,-26(fp)
 80005ac:	1885c83a 	sub	r2,r3,r2
 80005b0:	117fffcc 	andi	r5,r2,65535
 80005b4:	2960001c 	xori	r5,r5,32768
 80005b8:	29600004 	addi	r5,r5,-32768
 80005bc:	e0fffe0b 	ldhu	r3,-8(fp)
 80005c0:	e0bff90b 	ldhu	r2,-28(fp)
 80005c4:	1885883a 	add	r2,r3,r2
 80005c8:	11bfffcc 	andi	r6,r2,65535
 80005cc:	31a0001c 	xori	r6,r6,32768
 80005d0:	31a00004 	addi	r6,r6,-32768
 80005d4:	e13ffc17 	ldw	r4,-16(fp)
 80005d8:	e1c00217 	ldw	r7,8(fp)
 80005dc:	80024900 	call	8002490 <drawPixel>
		drawPixel(psInst,x0 + x, y0 - y, color);
 80005e0:	e0fffd0b 	ldhu	r3,-12(fp)
 80005e4:	e0bff98b 	ldhu	r2,-26(fp)
 80005e8:	1885883a 	add	r2,r3,r2
 80005ec:	117fffcc 	andi	r5,r2,65535
 80005f0:	2960001c 	xori	r5,r5,32768
 80005f4:	29600004 	addi	r5,r5,-32768
 80005f8:	e0fffe0b 	ldhu	r3,-8(fp)
 80005fc:	e0bff90b 	ldhu	r2,-28(fp)
 8000600:	1885c83a 	sub	r2,r3,r2
 8000604:	11bfffcc 	andi	r6,r2,65535
 8000608:	31a0001c 	xori	r6,r6,32768
 800060c:	31a00004 	addi	r6,r6,-32768
 8000610:	e13ffc17 	ldw	r4,-16(fp)
 8000614:	e1c00217 	ldw	r7,8(fp)
 8000618:	80024900 	call	8002490 <drawPixel>
		drawPixel(psInst,x0 - x, y0 - y, color);
 800061c:	e0fffd0b 	ldhu	r3,-12(fp)
 8000620:	e0bff98b 	ldhu	r2,-26(fp)
 8000624:	1885c83a 	sub	r2,r3,r2
 8000628:	117fffcc 	andi	r5,r2,65535
 800062c:	2960001c 	xori	r5,r5,32768
 8000630:	29600004 	addi	r5,r5,-32768
 8000634:	e0fffe0b 	ldhu	r3,-8(fp)
 8000638:	e0bff90b 	ldhu	r2,-28(fp)
 800063c:	1885c83a 	sub	r2,r3,r2
 8000640:	11bfffcc 	andi	r6,r2,65535
 8000644:	31a0001c 	xori	r6,r6,32768
 8000648:	31a00004 	addi	r6,r6,-32768
 800064c:	e13ffc17 	ldw	r4,-16(fp)
 8000650:	e1c00217 	ldw	r7,8(fp)
 8000654:	80024900 	call	8002490 <drawPixel>
		drawPixel(psInst,x0 + y, y0 + x, color);
 8000658:	e0fffd0b 	ldhu	r3,-12(fp)
 800065c:	e0bff90b 	ldhu	r2,-28(fp)
 8000660:	1885883a 	add	r2,r3,r2
 8000664:	117fffcc 	andi	r5,r2,65535
 8000668:	2960001c 	xori	r5,r5,32768
 800066c:	29600004 	addi	r5,r5,-32768
 8000670:	e0fffe0b 	ldhu	r3,-8(fp)
 8000674:	e0bff98b 	ldhu	r2,-26(fp)
 8000678:	1885883a 	add	r2,r3,r2
 800067c:	11bfffcc 	andi	r6,r2,65535
 8000680:	31a0001c 	xori	r6,r6,32768
 8000684:	31a00004 	addi	r6,r6,-32768
 8000688:	e13ffc17 	ldw	r4,-16(fp)
 800068c:	e1c00217 	ldw	r7,8(fp)
 8000690:	80024900 	call	8002490 <drawPixel>
		drawPixel(psInst,x0 - y, y0 + x, color);
 8000694:	e0fffd0b 	ldhu	r3,-12(fp)
 8000698:	e0bff90b 	ldhu	r2,-28(fp)
 800069c:	1885c83a 	sub	r2,r3,r2
 80006a0:	117fffcc 	andi	r5,r2,65535
 80006a4:	2960001c 	xori	r5,r5,32768
 80006a8:	29600004 	addi	r5,r5,-32768
 80006ac:	e0fffe0b 	ldhu	r3,-8(fp)
 80006b0:	e0bff98b 	ldhu	r2,-26(fp)
 80006b4:	1885883a 	add	r2,r3,r2
 80006b8:	11bfffcc 	andi	r6,r2,65535
 80006bc:	31a0001c 	xori	r6,r6,32768
 80006c0:	31a00004 	addi	r6,r6,-32768
 80006c4:	e13ffc17 	ldw	r4,-16(fp)
 80006c8:	e1c00217 	ldw	r7,8(fp)
 80006cc:	80024900 	call	8002490 <drawPixel>
		drawPixel(psInst,x0 + y, y0 - x, color);
 80006d0:	e0fffd0b 	ldhu	r3,-12(fp)
 80006d4:	e0bff90b 	ldhu	r2,-28(fp)
 80006d8:	1885883a 	add	r2,r3,r2
 80006dc:	117fffcc 	andi	r5,r2,65535
 80006e0:	2960001c 	xori	r5,r5,32768
 80006e4:	29600004 	addi	r5,r5,-32768
 80006e8:	e0fffe0b 	ldhu	r3,-8(fp)
 80006ec:	e0bff98b 	ldhu	r2,-26(fp)
 80006f0:	1885c83a 	sub	r2,r3,r2
 80006f4:	11bfffcc 	andi	r6,r2,65535
 80006f8:	31a0001c 	xori	r6,r6,32768
 80006fc:	31a00004 	addi	r6,r6,-32768
 8000700:	e13ffc17 	ldw	r4,-16(fp)
 8000704:	e1c00217 	ldw	r7,8(fp)
 8000708:	80024900 	call	8002490 <drawPixel>
		drawPixel(psInst,x0 - y, y0 - x, color);
 800070c:	e0fffd0b 	ldhu	r3,-12(fp)
 8000710:	e0bff90b 	ldhu	r2,-28(fp)
 8000714:	1885c83a 	sub	r2,r3,r2
 8000718:	117fffcc 	andi	r5,r2,65535
 800071c:	2960001c 	xori	r5,r5,32768
 8000720:	29600004 	addi	r5,r5,-32768
 8000724:	e0fffe0b 	ldhu	r3,-8(fp)
 8000728:	e0bff98b 	ldhu	r2,-26(fp)
 800072c:	1885c83a 	sub	r2,r3,r2
 8000730:	11bfffcc 	andi	r6,r2,65535
 8000734:	31a0001c 	xori	r6,r6,32768
 8000738:	31a00004 	addi	r6,r6,-32768
 800073c:	e13ffc17 	ldw	r4,-16(fp)
 8000740:	e1c00217 	ldw	r7,8(fp)
 8000744:	80024900 	call	8002490 <drawPixel>
	drawPixel(psInst, x0, y0 + r, color);
	drawPixel(psInst, x0, y0 - r, color);
	drawPixel(psInst, x0 + r, y0, color);
	drawPixel(psInst, x0 - r, y0, color);

	while (x < y) {
 8000748:	e0fff98f 	ldh	r3,-26(fp)
 800074c:	e0bff90f 	ldh	r2,-28(fp)
 8000750:	18bf6e16 	blt	r3,r2,800050c <drawCircle+0xf8>
		drawPixel(psInst,x0 + y, y0 + x, color);
		drawPixel(psInst,x0 - y, y0 + x, color);
		drawPixel(psInst,x0 + y, y0 - x, color);
		drawPixel(psInst,x0 - y, y0 - x, color);
	}
}
 8000754:	e037883a 	mov	sp,fp
 8000758:	dfc00117 	ldw	ra,4(sp)
 800075c:	df000017 	ldw	fp,0(sp)
 8000760:	dec00204 	addi	sp,sp,8
 8000764:	f800283a 	ret

08000768 <drawCircleHelper>:

void drawCircleHelper(tAdafruit_GFX *psInst, int16_t x0, int16_t y0, int16_t r,
		uint8_t cornername, uint32_t color) {
 8000768:	defff604 	addi	sp,sp,-40
 800076c:	dfc00915 	stw	ra,36(sp)
 8000770:	df000815 	stw	fp,32(sp)
 8000774:	df000804 	addi	fp,sp,32
 8000778:	e13ffb15 	stw	r4,-20(fp)
 800077c:	e0800217 	ldw	r2,8(fp)
 8000780:	e17ffc0d 	sth	r5,-16(fp)
 8000784:	e1bffd0d 	sth	r6,-12(fp)
 8000788:	e1fffe0d 	sth	r7,-8(fp)
 800078c:	e0bfff05 	stb	r2,-4(fp)
	int16_t f = 1 - r;
 8000790:	e0fffe0b 	ldhu	r3,-8(fp)
 8000794:	00800044 	movi	r2,1
 8000798:	10c5c83a 	sub	r2,r2,r3
 800079c:	e0bffa0d 	sth	r2,-24(fp)
	int16_t ddF_x = 1;
 80007a0:	00800044 	movi	r2,1
 80007a4:	e0bff98d 	sth	r2,-26(fp)
	int16_t ddF_y = -2 * r;
 80007a8:	e0bffe0f 	ldh	r2,-8(fp)
 80007ac:	1085883a 	add	r2,r2,r2
 80007b0:	0085c83a 	sub	r2,zero,r2
 80007b4:	e0bff90d 	sth	r2,-28(fp)
	int16_t x = 0;
 80007b8:	e03ff88d 	sth	zero,-30(fp)
	int16_t y = r;
 80007bc:	e0bffe0b 	ldhu	r2,-8(fp)
 80007c0:	e0bff80d 	sth	r2,-32(fp)

	while (x < y) {
 80007c4:	0000a006 	br	8000a48 <drawCircleHelper+0x2e0>
		if (f >= 0) {
 80007c8:	e0bffa0f 	ldh	r2,-24(fp)
 80007cc:	1004803a 	cmplt	r2,r2,zero
 80007d0:	10000a1e 	bne	r2,zero,80007fc <drawCircleHelper+0x94>
			y--;
 80007d4:	e0bff80b 	ldhu	r2,-32(fp)
 80007d8:	10bfffc4 	addi	r2,r2,-1
 80007dc:	e0bff80d 	sth	r2,-32(fp)
			ddF_y += 2;
 80007e0:	e0bff90b 	ldhu	r2,-28(fp)
 80007e4:	10800084 	addi	r2,r2,2
 80007e8:	e0bff90d 	sth	r2,-28(fp)
			f += ddF_y;
 80007ec:	e0fffa0b 	ldhu	r3,-24(fp)
 80007f0:	e0bff90b 	ldhu	r2,-28(fp)
 80007f4:	1885883a 	add	r2,r3,r2
 80007f8:	e0bffa0d 	sth	r2,-24(fp)
		}
		x++;
 80007fc:	e0bff88b 	ldhu	r2,-30(fp)
 8000800:	10800044 	addi	r2,r2,1
 8000804:	e0bff88d 	sth	r2,-30(fp)
		ddF_x += 2;
 8000808:	e0bff98b 	ldhu	r2,-26(fp)
 800080c:	10800084 	addi	r2,r2,2
 8000810:	e0bff98d 	sth	r2,-26(fp)
		f += ddF_x;
 8000814:	e0fffa0b 	ldhu	r3,-24(fp)
 8000818:	e0bff98b 	ldhu	r2,-26(fp)
 800081c:	1885883a 	add	r2,r3,r2
 8000820:	e0bffa0d 	sth	r2,-24(fp)
		if (cornername & 0x4) {
 8000824:	e0bfff03 	ldbu	r2,-4(fp)
 8000828:	1080010c 	andi	r2,r2,4
 800082c:	1005003a 	cmpeq	r2,r2,zero
 8000830:	10001e1e 	bne	r2,zero,80008ac <drawCircleHelper+0x144>
			drawPixel(psInst,x0 + x, y0 + y, color);
 8000834:	e0fffc0b 	ldhu	r3,-16(fp)
 8000838:	e0bff88b 	ldhu	r2,-30(fp)
 800083c:	1885883a 	add	r2,r3,r2
 8000840:	117fffcc 	andi	r5,r2,65535
 8000844:	2960001c 	xori	r5,r5,32768
 8000848:	29600004 	addi	r5,r5,-32768
 800084c:	e0fffd0b 	ldhu	r3,-12(fp)
 8000850:	e0bff80b 	ldhu	r2,-32(fp)
 8000854:	1885883a 	add	r2,r3,r2
 8000858:	11bfffcc 	andi	r6,r2,65535
 800085c:	31a0001c 	xori	r6,r6,32768
 8000860:	31a00004 	addi	r6,r6,-32768
 8000864:	e13ffb17 	ldw	r4,-20(fp)
 8000868:	e1c00317 	ldw	r7,12(fp)
 800086c:	80024900 	call	8002490 <drawPixel>
			drawPixel(psInst,x0 + y, y0 + x, color);
 8000870:	e0fffc0b 	ldhu	r3,-16(fp)
 8000874:	e0bff80b 	ldhu	r2,-32(fp)
 8000878:	1885883a 	add	r2,r3,r2
 800087c:	117fffcc 	andi	r5,r2,65535
 8000880:	2960001c 	xori	r5,r5,32768
 8000884:	29600004 	addi	r5,r5,-32768
 8000888:	e0fffd0b 	ldhu	r3,-12(fp)
 800088c:	e0bff88b 	ldhu	r2,-30(fp)
 8000890:	1885883a 	add	r2,r3,r2
 8000894:	11bfffcc 	andi	r6,r2,65535
 8000898:	31a0001c 	xori	r6,r6,32768
 800089c:	31a00004 	addi	r6,r6,-32768
 80008a0:	e13ffb17 	ldw	r4,-20(fp)
 80008a4:	e1c00317 	ldw	r7,12(fp)
 80008a8:	80024900 	call	8002490 <drawPixel>
		}
		if (cornername & 0x2) {
 80008ac:	e0bfff03 	ldbu	r2,-4(fp)
 80008b0:	1080008c 	andi	r2,r2,2
 80008b4:	1005003a 	cmpeq	r2,r2,zero
 80008b8:	10001e1e 	bne	r2,zero,8000934 <drawCircleHelper+0x1cc>
			drawPixel(psInst,x0 + x, y0 - y, color);
 80008bc:	e0fffc0b 	ldhu	r3,-16(fp)
 80008c0:	e0bff88b 	ldhu	r2,-30(fp)
 80008c4:	1885883a 	add	r2,r3,r2
 80008c8:	117fffcc 	andi	r5,r2,65535
 80008cc:	2960001c 	xori	r5,r5,32768
 80008d0:	29600004 	addi	r5,r5,-32768
 80008d4:	e0fffd0b 	ldhu	r3,-12(fp)
 80008d8:	e0bff80b 	ldhu	r2,-32(fp)
 80008dc:	1885c83a 	sub	r2,r3,r2
 80008e0:	11bfffcc 	andi	r6,r2,65535
 80008e4:	31a0001c 	xori	r6,r6,32768
 80008e8:	31a00004 	addi	r6,r6,-32768
 80008ec:	e13ffb17 	ldw	r4,-20(fp)
 80008f0:	e1c00317 	ldw	r7,12(fp)
 80008f4:	80024900 	call	8002490 <drawPixel>
			drawPixel(psInst,x0 + y, y0 - x, color);
 80008f8:	e0fffc0b 	ldhu	r3,-16(fp)
 80008fc:	e0bff80b 	ldhu	r2,-32(fp)
 8000900:	1885883a 	add	r2,r3,r2
 8000904:	117fffcc 	andi	r5,r2,65535
 8000908:	2960001c 	xori	r5,r5,32768
 800090c:	29600004 	addi	r5,r5,-32768
 8000910:	e0fffd0b 	ldhu	r3,-12(fp)
 8000914:	e0bff88b 	ldhu	r2,-30(fp)
 8000918:	1885c83a 	sub	r2,r3,r2
 800091c:	11bfffcc 	andi	r6,r2,65535
 8000920:	31a0001c 	xori	r6,r6,32768
 8000924:	31a00004 	addi	r6,r6,-32768
 8000928:	e13ffb17 	ldw	r4,-20(fp)
 800092c:	e1c00317 	ldw	r7,12(fp)
 8000930:	80024900 	call	8002490 <drawPixel>
		}
		if (cornername & 0x8) {
 8000934:	e0bfff03 	ldbu	r2,-4(fp)
 8000938:	1080020c 	andi	r2,r2,8
 800093c:	1005003a 	cmpeq	r2,r2,zero
 8000940:	10001e1e 	bne	r2,zero,80009bc <drawCircleHelper+0x254>
			drawPixel(psInst,x0 - y, y0 + x, color);
 8000944:	e0fffc0b 	ldhu	r3,-16(fp)
 8000948:	e0bff80b 	ldhu	r2,-32(fp)
 800094c:	1885c83a 	sub	r2,r3,r2
 8000950:	117fffcc 	andi	r5,r2,65535
 8000954:	2960001c 	xori	r5,r5,32768
 8000958:	29600004 	addi	r5,r5,-32768
 800095c:	e0fffd0b 	ldhu	r3,-12(fp)
 8000960:	e0bff88b 	ldhu	r2,-30(fp)
 8000964:	1885883a 	add	r2,r3,r2
 8000968:	11bfffcc 	andi	r6,r2,65535
 800096c:	31a0001c 	xori	r6,r6,32768
 8000970:	31a00004 	addi	r6,r6,-32768
 8000974:	e13ffb17 	ldw	r4,-20(fp)
 8000978:	e1c00317 	ldw	r7,12(fp)
 800097c:	80024900 	call	8002490 <drawPixel>
			drawPixel(psInst,x0 - x, y0 + y, color);
 8000980:	e0fffc0b 	ldhu	r3,-16(fp)
 8000984:	e0bff88b 	ldhu	r2,-30(fp)
 8000988:	1885c83a 	sub	r2,r3,r2
 800098c:	117fffcc 	andi	r5,r2,65535
 8000990:	2960001c 	xori	r5,r5,32768
 8000994:	29600004 	addi	r5,r5,-32768
 8000998:	e0fffd0b 	ldhu	r3,-12(fp)
 800099c:	e0bff80b 	ldhu	r2,-32(fp)
 80009a0:	1885883a 	add	r2,r3,r2
 80009a4:	11bfffcc 	andi	r6,r2,65535
 80009a8:	31a0001c 	xori	r6,r6,32768
 80009ac:	31a00004 	addi	r6,r6,-32768
 80009b0:	e13ffb17 	ldw	r4,-20(fp)
 80009b4:	e1c00317 	ldw	r7,12(fp)
 80009b8:	80024900 	call	8002490 <drawPixel>
		}
		if (cornername & 0x1) {
 80009bc:	e0bfff03 	ldbu	r2,-4(fp)
 80009c0:	1080004c 	andi	r2,r2,1
 80009c4:	10803fcc 	andi	r2,r2,255
 80009c8:	1005003a 	cmpeq	r2,r2,zero
 80009cc:	10001e1e 	bne	r2,zero,8000a48 <drawCircleHelper+0x2e0>
			drawPixel(psInst,x0 - y, y0 - x, color);
 80009d0:	e0fffc0b 	ldhu	r3,-16(fp)
 80009d4:	e0bff80b 	ldhu	r2,-32(fp)
 80009d8:	1885c83a 	sub	r2,r3,r2
 80009dc:	117fffcc 	andi	r5,r2,65535
 80009e0:	2960001c 	xori	r5,r5,32768
 80009e4:	29600004 	addi	r5,r5,-32768
 80009e8:	e0fffd0b 	ldhu	r3,-12(fp)
 80009ec:	e0bff88b 	ldhu	r2,-30(fp)
 80009f0:	1885c83a 	sub	r2,r3,r2
 80009f4:	11bfffcc 	andi	r6,r2,65535
 80009f8:	31a0001c 	xori	r6,r6,32768
 80009fc:	31a00004 	addi	r6,r6,-32768
 8000a00:	e13ffb17 	ldw	r4,-20(fp)
 8000a04:	e1c00317 	ldw	r7,12(fp)
 8000a08:	80024900 	call	8002490 <drawPixel>
			drawPixel(psInst,x0 - x, y0 - y, color);
 8000a0c:	e0fffc0b 	ldhu	r3,-16(fp)
 8000a10:	e0bff88b 	ldhu	r2,-30(fp)
 8000a14:	1885c83a 	sub	r2,r3,r2
 8000a18:	117fffcc 	andi	r5,r2,65535
 8000a1c:	2960001c 	xori	r5,r5,32768
 8000a20:	29600004 	addi	r5,r5,-32768
 8000a24:	e0fffd0b 	ldhu	r3,-12(fp)
 8000a28:	e0bff80b 	ldhu	r2,-32(fp)
 8000a2c:	1885c83a 	sub	r2,r3,r2
 8000a30:	11bfffcc 	andi	r6,r2,65535
 8000a34:	31a0001c 	xori	r6,r6,32768
 8000a38:	31a00004 	addi	r6,r6,-32768
 8000a3c:	e13ffb17 	ldw	r4,-20(fp)
 8000a40:	e1c00317 	ldw	r7,12(fp)
 8000a44:	80024900 	call	8002490 <drawPixel>
	int16_t ddF_x = 1;
	int16_t ddF_y = -2 * r;
	int16_t x = 0;
	int16_t y = r;

	while (x < y) {
 8000a48:	e0fff88f 	ldh	r3,-30(fp)
 8000a4c:	e0bff80f 	ldh	r2,-32(fp)
 8000a50:	18bf5d16 	blt	r3,r2,80007c8 <drawCircleHelper+0x60>
		if (cornername & 0x1) {
			drawPixel(psInst,x0 - y, y0 - x, color);
			drawPixel(psInst,x0 - x, y0 - y, color);
		}
	}
}
 8000a54:	e037883a 	mov	sp,fp
 8000a58:	dfc00117 	ldw	ra,4(sp)
 8000a5c:	df000017 	ldw	fp,0(sp)
 8000a60:	dec00204 	addi	sp,sp,8
 8000a64:	f800283a 	ret

08000a68 <drawLine>:

// Bresenham's algorithm - thx wikpedia
void drawLine(tAdafruit_GFX *psInst, int16_t x0, int16_t y0, int16_t x1, int16_t y1,
		uint32_t color) {
 8000a68:	defff104 	addi	sp,sp,-60
 8000a6c:	dfc00e15 	stw	ra,56(sp)
 8000a70:	df000d15 	stw	fp,52(sp)
 8000a74:	df000d04 	addi	fp,sp,52
 8000a78:	e13ff815 	stw	r4,-32(fp)
 8000a7c:	e0800217 	ldw	r2,8(fp)
 8000a80:	e17ff90d 	sth	r5,-28(fp)
 8000a84:	e1bffa0d 	sth	r6,-24(fp)
 8000a88:	e1fffb0d 	sth	r7,-20(fp)
 8000a8c:	e0bffc0d 	sth	r2,-16(fp)
	int16_t steep = abs(y1 - y0) > abs(x1 - x0);
 8000a90:	e0fffc0f 	ldh	r3,-16(fp)
 8000a94:	e0bffa0f 	ldh	r2,-24(fp)
 8000a98:	1885c83a 	sub	r2,r3,r2
 8000a9c:	e0bfff15 	stw	r2,-4(fp)
 8000aa0:	e0ffff17 	ldw	r3,-4(fp)
 8000aa4:	1804403a 	cmpge	r2,r3,zero
 8000aa8:	1000031e 	bne	r2,zero,8000ab8 <drawLine+0x50>
 8000aac:	e13fff17 	ldw	r4,-4(fp)
 8000ab0:	0109c83a 	sub	r4,zero,r4
 8000ab4:	e13fff15 	stw	r4,-4(fp)
 8000ab8:	e0fffb0f 	ldh	r3,-20(fp)
 8000abc:	e0bff90f 	ldh	r2,-28(fp)
 8000ac0:	1885c83a 	sub	r2,r3,r2
 8000ac4:	e0bffe15 	stw	r2,-8(fp)
 8000ac8:	e0fffe17 	ldw	r3,-8(fp)
 8000acc:	1804403a 	cmpge	r2,r3,zero
 8000ad0:	1000031e 	bne	r2,zero,8000ae0 <drawLine+0x78>
 8000ad4:	e13ffe17 	ldw	r4,-8(fp)
 8000ad8:	0109c83a 	sub	r4,zero,r4
 8000adc:	e13ffe15 	stw	r4,-8(fp)
 8000ae0:	e0fffe17 	ldw	r3,-8(fp)
 8000ae4:	e13fff17 	ldw	r4,-4(fp)
 8000ae8:	1904803a 	cmplt	r2,r3,r4
 8000aec:	e0bff70d 	sth	r2,-36(fp)
	if (steep) {
 8000af0:	e0bff70f 	ldh	r2,-36(fp)
 8000af4:	1005003a 	cmpeq	r2,r2,zero
 8000af8:	10000c1e 	bne	r2,zero,8000b2c <drawLine+0xc4>
		swap(x0, y0);
 8000afc:	e0bff90b 	ldhu	r2,-28(fp)
 8000b00:	e0bff48d 	sth	r2,-46(fp)
 8000b04:	e0bffa0b 	ldhu	r2,-24(fp)
 8000b08:	e0bff90d 	sth	r2,-28(fp)
 8000b0c:	e0bff48b 	ldhu	r2,-46(fp)
 8000b10:	e0bffa0d 	sth	r2,-24(fp)
		swap(x1, y1);
 8000b14:	e0bffb0b 	ldhu	r2,-20(fp)
 8000b18:	e0bff40d 	sth	r2,-48(fp)
 8000b1c:	e0bffc0b 	ldhu	r2,-16(fp)
 8000b20:	e0bffb0d 	sth	r2,-20(fp)
 8000b24:	e0bff40b 	ldhu	r2,-48(fp)
 8000b28:	e0bffc0d 	sth	r2,-16(fp)
	}

	if (x0 > x1) {
 8000b2c:	e0fff90f 	ldh	r3,-28(fp)
 8000b30:	e0bffb0f 	ldh	r2,-20(fp)
 8000b34:	10c00c0e 	bge	r2,r3,8000b68 <drawLine+0x100>
		swap(x0, x1);
 8000b38:	e0bff90b 	ldhu	r2,-28(fp)
 8000b3c:	e0bff38d 	sth	r2,-50(fp)
 8000b40:	e0bffb0b 	ldhu	r2,-20(fp)
 8000b44:	e0bff90d 	sth	r2,-28(fp)
 8000b48:	e0bff38b 	ldhu	r2,-50(fp)
 8000b4c:	e0bffb0d 	sth	r2,-20(fp)
		swap(y0, y1);
 8000b50:	e0bffa0b 	ldhu	r2,-24(fp)
 8000b54:	e0bff30d 	sth	r2,-52(fp)
 8000b58:	e0bffc0b 	ldhu	r2,-16(fp)
 8000b5c:	e0bffa0d 	sth	r2,-24(fp)
 8000b60:	e0bff30b 	ldhu	r2,-52(fp)
 8000b64:	e0bffc0d 	sth	r2,-16(fp)
	}

	int16_t dx, dy;
	dx = x1 - x0;
 8000b68:	e0fffb0b 	ldhu	r3,-20(fp)
 8000b6c:	e0bff90b 	ldhu	r2,-28(fp)
 8000b70:	1885c83a 	sub	r2,r3,r2
 8000b74:	e0bff68d 	sth	r2,-38(fp)
	dy = abs(y1 - y0);
 8000b78:	e0fffc0f 	ldh	r3,-16(fp)
 8000b7c:	e0bffa0f 	ldh	r2,-24(fp)
 8000b80:	1885c83a 	sub	r2,r3,r2
 8000b84:	e0bffd15 	stw	r2,-12(fp)
 8000b88:	e0fffd17 	ldw	r3,-12(fp)
 8000b8c:	1804403a 	cmpge	r2,r3,zero
 8000b90:	1000031e 	bne	r2,zero,8000ba0 <drawLine+0x138>
 8000b94:	e13ffd17 	ldw	r4,-12(fp)
 8000b98:	0109c83a 	sub	r4,zero,r4
 8000b9c:	e13ffd15 	stw	r4,-12(fp)
 8000ba0:	e0bffd17 	ldw	r2,-12(fp)
 8000ba4:	e0bff60d 	sth	r2,-40(fp)

	int16_t err = dx / 2;
 8000ba8:	e0fff68f 	ldh	r3,-38(fp)
 8000bac:	1804d7fa 	srli	r2,r3,31
 8000bb0:	10c5883a 	add	r2,r2,r3
 8000bb4:	1005d07a 	srai	r2,r2,1
 8000bb8:	e0bff58d 	sth	r2,-42(fp)
	int16_t ystep;

	if (y0 < y1) {
 8000bbc:	e0fffa0f 	ldh	r3,-24(fp)
 8000bc0:	e0bffc0f 	ldh	r2,-16(fp)
 8000bc4:	1880030e 	bge	r3,r2,8000bd4 <drawLine+0x16c>
		ystep = 1;
 8000bc8:	00800044 	movi	r2,1
 8000bcc:	e0bff50d 	sth	r2,-44(fp)
 8000bd0:	00002306 	br	8000c60 <drawLine+0x1f8>
	} else {
		ystep = -1;
 8000bd4:	00bfffc4 	movi	r2,-1
 8000bd8:	e0bff50d 	sth	r2,-44(fp)
	}

	for (; x0 <= x1; x0++) {
 8000bdc:	00002006 	br	8000c60 <drawLine+0x1f8>
		if (steep) {
 8000be0:	e0bff70f 	ldh	r2,-36(fp)
 8000be4:	1005003a 	cmpeq	r2,r2,zero
 8000be8:	1000061e 	bne	r2,zero,8000c04 <drawLine+0x19c>
			drawPixel(psInst,y0, x0, color);
 8000bec:	e17ffa0f 	ldh	r5,-24(fp)
 8000bf0:	e1bff90f 	ldh	r6,-28(fp)
 8000bf4:	e13ff817 	ldw	r4,-32(fp)
 8000bf8:	e1c00317 	ldw	r7,12(fp)
 8000bfc:	80024900 	call	8002490 <drawPixel>
 8000c00:	00000506 	br	8000c18 <drawLine+0x1b0>
		} else {
			drawPixel(psInst,x0, y0, color);
 8000c04:	e17ff90f 	ldh	r5,-28(fp)
 8000c08:	e1bffa0f 	ldh	r6,-24(fp)
 8000c0c:	e13ff817 	ldw	r4,-32(fp)
 8000c10:	e1c00317 	ldw	r7,12(fp)
 8000c14:	80024900 	call	8002490 <drawPixel>
		}
		err -= dy;
 8000c18:	e0fff58b 	ldhu	r3,-42(fp)
 8000c1c:	e0bff60b 	ldhu	r2,-40(fp)
 8000c20:	1885c83a 	sub	r2,r3,r2
 8000c24:	e0bff58d 	sth	r2,-42(fp)
		if (err < 0) {
 8000c28:	e0bff58f 	ldh	r2,-42(fp)
 8000c2c:	1004403a 	cmpge	r2,r2,zero
 8000c30:	1000081e 	bne	r2,zero,8000c54 <drawLine+0x1ec>
			y0 += ystep;
 8000c34:	e0fffa0b 	ldhu	r3,-24(fp)
 8000c38:	e0bff50b 	ldhu	r2,-44(fp)
 8000c3c:	1885883a 	add	r2,r3,r2
 8000c40:	e0bffa0d 	sth	r2,-24(fp)
			err += dx;
 8000c44:	e0fff58b 	ldhu	r3,-42(fp)
 8000c48:	e0bff68b 	ldhu	r2,-38(fp)
 8000c4c:	1885883a 	add	r2,r3,r2
 8000c50:	e0bff58d 	sth	r2,-42(fp)
		ystep = 1;
	} else {
		ystep = -1;
	}

	for (; x0 <= x1; x0++) {
 8000c54:	e0bff90b 	ldhu	r2,-28(fp)
 8000c58:	10800044 	addi	r2,r2,1
 8000c5c:	e0bff90d 	sth	r2,-28(fp)
 8000c60:	e0fff90f 	ldh	r3,-28(fp)
 8000c64:	e0bffb0f 	ldh	r2,-20(fp)
 8000c68:	10ffdd0e 	bge	r2,r3,8000be0 <drawLine+0x178>
		if (err < 0) {
			y0 += ystep;
			err += dx;
		}
	}
}
 8000c6c:	e037883a 	mov	sp,fp
 8000c70:	dfc00117 	ldw	ra,4(sp)
 8000c74:	df000017 	ldw	fp,0(sp)
 8000c78:	dec00204 	addi	sp,sp,8
 8000c7c:	f800283a 	ret

08000c80 <drawFastVLine>:

void drawFastVLine(tAdafruit_GFX *psInst, int16_t x, int16_t y, int16_t h,
		uint32_t color) {
 8000c80:	defff804 	addi	sp,sp,-32
 8000c84:	dfc00715 	stw	ra,28(sp)
 8000c88:	df000615 	stw	fp,24(sp)
 8000c8c:	df000604 	addi	fp,sp,24
 8000c90:	e13ffc15 	stw	r4,-16(fp)
 8000c94:	e17ffd0d 	sth	r5,-12(fp)
 8000c98:	e1bffe0d 	sth	r6,-8(fp)
 8000c9c:	e1ffff0d 	sth	r7,-4(fp)
	// Update in subclasses if desired!
	drawLine(psInst,x, y, x, y + h - 1, color);
 8000ca0:	e17ffd0f 	ldh	r5,-12(fp)
 8000ca4:	e1bffe0f 	ldh	r6,-8(fp)
 8000ca8:	e1fffd0f 	ldh	r7,-12(fp)
 8000cac:	e0fffe0b 	ldhu	r3,-8(fp)
 8000cb0:	e0bfff0b 	ldhu	r2,-4(fp)
 8000cb4:	1885883a 	add	r2,r3,r2
 8000cb8:	10bfffc4 	addi	r2,r2,-1
 8000cbc:	10bfffcc 	andi	r2,r2,65535
 8000cc0:	10a0001c 	xori	r2,r2,32768
 8000cc4:	10a00004 	addi	r2,r2,-32768
 8000cc8:	d8800015 	stw	r2,0(sp)
 8000ccc:	e0800217 	ldw	r2,8(fp)
 8000cd0:	d8800115 	stw	r2,4(sp)
 8000cd4:	e13ffc17 	ldw	r4,-16(fp)
 8000cd8:	8000a680 	call	8000a68 <drawLine>
}
 8000cdc:	e037883a 	mov	sp,fp
 8000ce0:	dfc00117 	ldw	ra,4(sp)
 8000ce4:	df000017 	ldw	fp,0(sp)
 8000ce8:	dec00204 	addi	sp,sp,8
 8000cec:	f800283a 	ret

08000cf0 <drawFastHLine>:

void drawFastHLine(tAdafruit_GFX *psInst, int16_t x, int16_t y, int16_t w,
		uint32_t color) {
 8000cf0:	defff804 	addi	sp,sp,-32
 8000cf4:	dfc00715 	stw	ra,28(sp)
 8000cf8:	df000615 	stw	fp,24(sp)
 8000cfc:	df000604 	addi	fp,sp,24
 8000d00:	e13ffc15 	stw	r4,-16(fp)
 8000d04:	e17ffd0d 	sth	r5,-12(fp)
 8000d08:	e1bffe0d 	sth	r6,-8(fp)
 8000d0c:	e1ffff0d 	sth	r7,-4(fp)
	// Update in subclasses if desired!
	drawLine(psInst,x, y, x + w - 1, y, color);
 8000d10:	e17ffd0f 	ldh	r5,-12(fp)
 8000d14:	e1bffe0f 	ldh	r6,-8(fp)
 8000d18:	e0fffd0b 	ldhu	r3,-12(fp)
 8000d1c:	e0bfff0b 	ldhu	r2,-4(fp)
 8000d20:	1885883a 	add	r2,r3,r2
 8000d24:	10bfffc4 	addi	r2,r2,-1
 8000d28:	11ffffcc 	andi	r7,r2,65535
 8000d2c:	39e0001c 	xori	r7,r7,32768
 8000d30:	39e00004 	addi	r7,r7,-32768
 8000d34:	e0bffe0f 	ldh	r2,-8(fp)
 8000d38:	d8800015 	stw	r2,0(sp)
 8000d3c:	e0800217 	ldw	r2,8(fp)
 8000d40:	d8800115 	stw	r2,4(sp)
 8000d44:	e13ffc17 	ldw	r4,-16(fp)
 8000d48:	8000a680 	call	8000a68 <drawLine>
}
 8000d4c:	e037883a 	mov	sp,fp
 8000d50:	dfc00117 	ldw	ra,4(sp)
 8000d54:	df000017 	ldw	fp,0(sp)
 8000d58:	dec00204 	addi	sp,sp,8
 8000d5c:	f800283a 	ret

08000d60 <drawRect>:
// Draw a rectangle
void drawRect(tAdafruit_GFX *psInst, int16_t x, int16_t y, int16_t w, int16_t h,
		uint32_t color) {
 8000d60:	defff804 	addi	sp,sp,-32
 8000d64:	dfc00715 	stw	ra,28(sp)
 8000d68:	df000615 	stw	fp,24(sp)
 8000d6c:	df000604 	addi	fp,sp,24
 8000d70:	e13ffb15 	stw	r4,-20(fp)
 8000d74:	e0800217 	ldw	r2,8(fp)
 8000d78:	e17ffc0d 	sth	r5,-16(fp)
 8000d7c:	e1bffd0d 	sth	r6,-12(fp)
 8000d80:	e1fffe0d 	sth	r7,-8(fp)
 8000d84:	e0bfff0d 	sth	r2,-4(fp)
	drawFastHLine(psInst, x, y, w, color);
 8000d88:	e17ffc0f 	ldh	r5,-16(fp)
 8000d8c:	e1bffd0f 	ldh	r6,-12(fp)
 8000d90:	e1fffe0f 	ldh	r7,-8(fp)
 8000d94:	e0800317 	ldw	r2,12(fp)
 8000d98:	d8800015 	stw	r2,0(sp)
 8000d9c:	e13ffb17 	ldw	r4,-20(fp)
 8000da0:	8000cf00 	call	8000cf0 <drawFastHLine>
	drawFastHLine(psInst, x, y + h - 1, w, color);
 8000da4:	e17ffc0f 	ldh	r5,-16(fp)
 8000da8:	e0fffd0b 	ldhu	r3,-12(fp)
 8000dac:	e0bfff0b 	ldhu	r2,-4(fp)
 8000db0:	1885883a 	add	r2,r3,r2
 8000db4:	10bfffc4 	addi	r2,r2,-1
 8000db8:	11bfffcc 	andi	r6,r2,65535
 8000dbc:	31a0001c 	xori	r6,r6,32768
 8000dc0:	31a00004 	addi	r6,r6,-32768
 8000dc4:	e1fffe0f 	ldh	r7,-8(fp)
 8000dc8:	e0800317 	ldw	r2,12(fp)
 8000dcc:	d8800015 	stw	r2,0(sp)
 8000dd0:	e13ffb17 	ldw	r4,-20(fp)
 8000dd4:	8000cf00 	call	8000cf0 <drawFastHLine>
	drawFastVLine(psInst, x, y, h, color);
 8000dd8:	e17ffc0f 	ldh	r5,-16(fp)
 8000ddc:	e1bffd0f 	ldh	r6,-12(fp)
 8000de0:	e1ffff0f 	ldh	r7,-4(fp)
 8000de4:	e0800317 	ldw	r2,12(fp)
 8000de8:	d8800015 	stw	r2,0(sp)
 8000dec:	e13ffb17 	ldw	r4,-20(fp)
 8000df0:	8000c800 	call	8000c80 <drawFastVLine>
	drawFastVLine(psInst, x + w - 1, y, h, color);
 8000df4:	e0fffc0b 	ldhu	r3,-16(fp)
 8000df8:	e0bffe0b 	ldhu	r2,-8(fp)
 8000dfc:	1885883a 	add	r2,r3,r2
 8000e00:	10bfffc4 	addi	r2,r2,-1
 8000e04:	117fffcc 	andi	r5,r2,65535
 8000e08:	2960001c 	xori	r5,r5,32768
 8000e0c:	29600004 	addi	r5,r5,-32768
 8000e10:	e1bffd0f 	ldh	r6,-12(fp)
 8000e14:	e1ffff0f 	ldh	r7,-4(fp)
 8000e18:	e0800317 	ldw	r2,12(fp)
 8000e1c:	d8800015 	stw	r2,0(sp)
 8000e20:	e13ffb17 	ldw	r4,-20(fp)
 8000e24:	8000c800 	call	8000c80 <drawFastVLine>
}
 8000e28:	e037883a 	mov	sp,fp
 8000e2c:	dfc00117 	ldw	ra,4(sp)
 8000e30:	df000017 	ldw	fp,0(sp)
 8000e34:	dec00204 	addi	sp,sp,8
 8000e38:	f800283a 	ret

08000e3c <drawRoundRect>:

// Draw a rounded rectangle
void drawRoundRect(tAdafruit_GFX *psInst, int16_t x, int16_t y, int16_t w, int16_t h,
		int16_t r, uint32_t color) {
 8000e3c:	defff604 	addi	sp,sp,-40
 8000e40:	dfc00915 	stw	ra,36(sp)
 8000e44:	df000815 	stw	fp,32(sp)
 8000e48:	df000804 	addi	fp,sp,32
 8000e4c:	e13ffa15 	stw	r4,-24(fp)
 8000e50:	e0800217 	ldw	r2,8(fp)
 8000e54:	e0c00317 	ldw	r3,12(fp)
 8000e58:	e17ffb0d 	sth	r5,-20(fp)
 8000e5c:	e1bffc0d 	sth	r6,-16(fp)
 8000e60:	e1fffd0d 	sth	r7,-12(fp)
 8000e64:	e0bffe0d 	sth	r2,-8(fp)
 8000e68:	e0ffff0d 	sth	r3,-4(fp)
	// smarter version
	drawFastHLine(psInst,x + r, y, w - 2 * r, color); // Top
 8000e6c:	e0fffb0b 	ldhu	r3,-20(fp)
 8000e70:	e0bfff0b 	ldhu	r2,-4(fp)
 8000e74:	1885883a 	add	r2,r3,r2
 8000e78:	117fffcc 	andi	r5,r2,65535
 8000e7c:	2960001c 	xori	r5,r5,32768
 8000e80:	29600004 	addi	r5,r5,-32768
 8000e84:	e1bffc0f 	ldh	r6,-16(fp)
 8000e88:	e0fffd0b 	ldhu	r3,-12(fp)
 8000e8c:	e0bfff0f 	ldh	r2,-4(fp)
 8000e90:	1085883a 	add	r2,r2,r2
 8000e94:	1885c83a 	sub	r2,r3,r2
 8000e98:	11ffffcc 	andi	r7,r2,65535
 8000e9c:	39e0001c 	xori	r7,r7,32768
 8000ea0:	39e00004 	addi	r7,r7,-32768
 8000ea4:	e0800417 	ldw	r2,16(fp)
 8000ea8:	d8800015 	stw	r2,0(sp)
 8000eac:	e13ffa17 	ldw	r4,-24(fp)
 8000eb0:	8000cf00 	call	8000cf0 <drawFastHLine>
	drawFastHLine(psInst,x + r, y + h - 1, w - 2 * r, color); // Bottom
 8000eb4:	e0fffb0b 	ldhu	r3,-20(fp)
 8000eb8:	e0bfff0b 	ldhu	r2,-4(fp)
 8000ebc:	1885883a 	add	r2,r3,r2
 8000ec0:	117fffcc 	andi	r5,r2,65535
 8000ec4:	2960001c 	xori	r5,r5,32768
 8000ec8:	29600004 	addi	r5,r5,-32768
 8000ecc:	e0fffc0b 	ldhu	r3,-16(fp)
 8000ed0:	e0bffe0b 	ldhu	r2,-8(fp)
 8000ed4:	1885883a 	add	r2,r3,r2
 8000ed8:	10bfffc4 	addi	r2,r2,-1
 8000edc:	11bfffcc 	andi	r6,r2,65535
 8000ee0:	31a0001c 	xori	r6,r6,32768
 8000ee4:	31a00004 	addi	r6,r6,-32768
 8000ee8:	e0fffd0b 	ldhu	r3,-12(fp)
 8000eec:	e0bfff0f 	ldh	r2,-4(fp)
 8000ef0:	1085883a 	add	r2,r2,r2
 8000ef4:	1885c83a 	sub	r2,r3,r2
 8000ef8:	11ffffcc 	andi	r7,r2,65535
 8000efc:	39e0001c 	xori	r7,r7,32768
 8000f00:	39e00004 	addi	r7,r7,-32768
 8000f04:	e0800417 	ldw	r2,16(fp)
 8000f08:	d8800015 	stw	r2,0(sp)
 8000f0c:	e13ffa17 	ldw	r4,-24(fp)
 8000f10:	8000cf00 	call	8000cf0 <drawFastHLine>
	drawFastVLine(psInst,x, y + r, h - 2 * r, color); // Left
 8000f14:	e17ffb0f 	ldh	r5,-20(fp)
 8000f18:	e0fffc0b 	ldhu	r3,-16(fp)
 8000f1c:	e0bfff0b 	ldhu	r2,-4(fp)
 8000f20:	1885883a 	add	r2,r3,r2
 8000f24:	11bfffcc 	andi	r6,r2,65535
 8000f28:	31a0001c 	xori	r6,r6,32768
 8000f2c:	31a00004 	addi	r6,r6,-32768
 8000f30:	e0fffe0b 	ldhu	r3,-8(fp)
 8000f34:	e0bfff0f 	ldh	r2,-4(fp)
 8000f38:	1085883a 	add	r2,r2,r2
 8000f3c:	1885c83a 	sub	r2,r3,r2
 8000f40:	11ffffcc 	andi	r7,r2,65535
 8000f44:	39e0001c 	xori	r7,r7,32768
 8000f48:	39e00004 	addi	r7,r7,-32768
 8000f4c:	e0800417 	ldw	r2,16(fp)
 8000f50:	d8800015 	stw	r2,0(sp)
 8000f54:	e13ffa17 	ldw	r4,-24(fp)
 8000f58:	8000c800 	call	8000c80 <drawFastVLine>
	drawFastVLine(psInst,x + w - 1, y + r, h - 2 * r, color); // Right
 8000f5c:	e0fffb0b 	ldhu	r3,-20(fp)
 8000f60:	e0bffd0b 	ldhu	r2,-12(fp)
 8000f64:	1885883a 	add	r2,r3,r2
 8000f68:	10bfffc4 	addi	r2,r2,-1
 8000f6c:	117fffcc 	andi	r5,r2,65535
 8000f70:	2960001c 	xori	r5,r5,32768
 8000f74:	29600004 	addi	r5,r5,-32768
 8000f78:	e0fffc0b 	ldhu	r3,-16(fp)
 8000f7c:	e0bfff0b 	ldhu	r2,-4(fp)
 8000f80:	1885883a 	add	r2,r3,r2
 8000f84:	11bfffcc 	andi	r6,r2,65535
 8000f88:	31a0001c 	xori	r6,r6,32768
 8000f8c:	31a00004 	addi	r6,r6,-32768
 8000f90:	e0fffe0b 	ldhu	r3,-8(fp)
 8000f94:	e0bfff0f 	ldh	r2,-4(fp)
 8000f98:	1085883a 	add	r2,r2,r2
 8000f9c:	1885c83a 	sub	r2,r3,r2
 8000fa0:	11ffffcc 	andi	r7,r2,65535
 8000fa4:	39e0001c 	xori	r7,r7,32768
 8000fa8:	39e00004 	addi	r7,r7,-32768
 8000fac:	e0800417 	ldw	r2,16(fp)
 8000fb0:	d8800015 	stw	r2,0(sp)
 8000fb4:	e13ffa17 	ldw	r4,-24(fp)
 8000fb8:	8000c800 	call	8000c80 <drawFastVLine>
	// draw four corners
	drawCircleHelper(psInst,x + r, y + r, r, 1, color);
 8000fbc:	e0fffb0b 	ldhu	r3,-20(fp)
 8000fc0:	e0bfff0b 	ldhu	r2,-4(fp)
 8000fc4:	1885883a 	add	r2,r3,r2
 8000fc8:	117fffcc 	andi	r5,r2,65535
 8000fcc:	2960001c 	xori	r5,r5,32768
 8000fd0:	29600004 	addi	r5,r5,-32768
 8000fd4:	e0fffc0b 	ldhu	r3,-16(fp)
 8000fd8:	e0bfff0b 	ldhu	r2,-4(fp)
 8000fdc:	1885883a 	add	r2,r3,r2
 8000fe0:	11bfffcc 	andi	r6,r2,65535
 8000fe4:	31a0001c 	xori	r6,r6,32768
 8000fe8:	31a00004 	addi	r6,r6,-32768
 8000fec:	e1ffff0f 	ldh	r7,-4(fp)
 8000ff0:	00800044 	movi	r2,1
 8000ff4:	d8800015 	stw	r2,0(sp)
 8000ff8:	e0800417 	ldw	r2,16(fp)
 8000ffc:	d8800115 	stw	r2,4(sp)
 8001000:	e13ffa17 	ldw	r4,-24(fp)
 8001004:	80007680 	call	8000768 <drawCircleHelper>
	drawCircleHelper(psInst,x + w - r - 1, y + r, r, 2, color);
 8001008:	e0fffb0b 	ldhu	r3,-20(fp)
 800100c:	e0bffd0b 	ldhu	r2,-12(fp)
 8001010:	1885883a 	add	r2,r3,r2
 8001014:	1007883a 	mov	r3,r2
 8001018:	e0bfff0b 	ldhu	r2,-4(fp)
 800101c:	1885c83a 	sub	r2,r3,r2
 8001020:	10bfffc4 	addi	r2,r2,-1
 8001024:	117fffcc 	andi	r5,r2,65535
 8001028:	2960001c 	xori	r5,r5,32768
 800102c:	29600004 	addi	r5,r5,-32768
 8001030:	e0fffc0b 	ldhu	r3,-16(fp)
 8001034:	e0bfff0b 	ldhu	r2,-4(fp)
 8001038:	1885883a 	add	r2,r3,r2
 800103c:	11bfffcc 	andi	r6,r2,65535
 8001040:	31a0001c 	xori	r6,r6,32768
 8001044:	31a00004 	addi	r6,r6,-32768
 8001048:	e1ffff0f 	ldh	r7,-4(fp)
 800104c:	00800084 	movi	r2,2
 8001050:	d8800015 	stw	r2,0(sp)
 8001054:	e0800417 	ldw	r2,16(fp)
 8001058:	d8800115 	stw	r2,4(sp)
 800105c:	e13ffa17 	ldw	r4,-24(fp)
 8001060:	80007680 	call	8000768 <drawCircleHelper>
	drawCircleHelper(psInst,x + w - r - 1, y + h - r - 1, r, 4, color);
 8001064:	e0fffb0b 	ldhu	r3,-20(fp)
 8001068:	e0bffd0b 	ldhu	r2,-12(fp)
 800106c:	1885883a 	add	r2,r3,r2
 8001070:	1007883a 	mov	r3,r2
 8001074:	e0bfff0b 	ldhu	r2,-4(fp)
 8001078:	1885c83a 	sub	r2,r3,r2
 800107c:	10bfffc4 	addi	r2,r2,-1
 8001080:	117fffcc 	andi	r5,r2,65535
 8001084:	2960001c 	xori	r5,r5,32768
 8001088:	29600004 	addi	r5,r5,-32768
 800108c:	e0fffc0b 	ldhu	r3,-16(fp)
 8001090:	e0bffe0b 	ldhu	r2,-8(fp)
 8001094:	1885883a 	add	r2,r3,r2
 8001098:	1007883a 	mov	r3,r2
 800109c:	e0bfff0b 	ldhu	r2,-4(fp)
 80010a0:	1885c83a 	sub	r2,r3,r2
 80010a4:	10bfffc4 	addi	r2,r2,-1
 80010a8:	11bfffcc 	andi	r6,r2,65535
 80010ac:	31a0001c 	xori	r6,r6,32768
 80010b0:	31a00004 	addi	r6,r6,-32768
 80010b4:	e1ffff0f 	ldh	r7,-4(fp)
 80010b8:	00800104 	movi	r2,4
 80010bc:	d8800015 	stw	r2,0(sp)
 80010c0:	e0800417 	ldw	r2,16(fp)
 80010c4:	d8800115 	stw	r2,4(sp)
 80010c8:	e13ffa17 	ldw	r4,-24(fp)
 80010cc:	80007680 	call	8000768 <drawCircleHelper>
	drawCircleHelper(psInst,x + r, y + h - r - 1, r, 8, color);
 80010d0:	e0fffb0b 	ldhu	r3,-20(fp)
 80010d4:	e0bfff0b 	ldhu	r2,-4(fp)
 80010d8:	1885883a 	add	r2,r3,r2
 80010dc:	117fffcc 	andi	r5,r2,65535
 80010e0:	2960001c 	xori	r5,r5,32768
 80010e4:	29600004 	addi	r5,r5,-32768
 80010e8:	e0fffc0b 	ldhu	r3,-16(fp)
 80010ec:	e0bffe0b 	ldhu	r2,-8(fp)
 80010f0:	1885883a 	add	r2,r3,r2
 80010f4:	1007883a 	mov	r3,r2
 80010f8:	e0bfff0b 	ldhu	r2,-4(fp)
 80010fc:	1885c83a 	sub	r2,r3,r2
 8001100:	10bfffc4 	addi	r2,r2,-1
 8001104:	11bfffcc 	andi	r6,r2,65535
 8001108:	31a0001c 	xori	r6,r6,32768
 800110c:	31a00004 	addi	r6,r6,-32768
 8001110:	e1ffff0f 	ldh	r7,-4(fp)
 8001114:	00800204 	movi	r2,8
 8001118:	d8800015 	stw	r2,0(sp)
 800111c:	e0800417 	ldw	r2,16(fp)
 8001120:	d8800115 	stw	r2,4(sp)
 8001124:	e13ffa17 	ldw	r4,-24(fp)
 8001128:	80007680 	call	8000768 <drawCircleHelper>
}
 800112c:	e037883a 	mov	sp,fp
 8001130:	dfc00117 	ldw	ra,4(sp)
 8001134:	df000017 	ldw	fp,0(sp)
 8001138:	dec00204 	addi	sp,sp,8
 800113c:	f800283a 	ret

08001140 <drawTriangle>:

// Draw a triangle
void drawTriangle(tAdafruit_GFX *psInst, int16_t x0, int16_t y0, int16_t x1, int16_t y1,
		int16_t x2, int16_t y2, uint32_t color) {
 8001140:	defff504 	addi	sp,sp,-44
 8001144:	dfc00a15 	stw	ra,40(sp)
 8001148:	df000915 	stw	fp,36(sp)
 800114c:	df000904 	addi	fp,sp,36
 8001150:	e13ff915 	stw	r4,-28(fp)
 8001154:	e0800217 	ldw	r2,8(fp)
 8001158:	e0c00317 	ldw	r3,12(fp)
 800115c:	e1000417 	ldw	r4,16(fp)
 8001160:	e17ffa0d 	sth	r5,-24(fp)
 8001164:	e1bffb0d 	sth	r6,-20(fp)
 8001168:	e1fffc0d 	sth	r7,-16(fp)
 800116c:	e0bffd0d 	sth	r2,-12(fp)
 8001170:	e0fffe0d 	sth	r3,-8(fp)
 8001174:	e13fff0d 	sth	r4,-4(fp)
	drawLine(psInst,x0, y0, x1, y1, color);
 8001178:	e17ffa0f 	ldh	r5,-24(fp)
 800117c:	e1bffb0f 	ldh	r6,-20(fp)
 8001180:	e1fffc0f 	ldh	r7,-16(fp)
 8001184:	e0bffd0f 	ldh	r2,-12(fp)
 8001188:	d8800015 	stw	r2,0(sp)
 800118c:	e0800517 	ldw	r2,20(fp)
 8001190:	d8800115 	stw	r2,4(sp)
 8001194:	e13ff917 	ldw	r4,-28(fp)
 8001198:	8000a680 	call	8000a68 <drawLine>
	drawLine(psInst,x1, y1, x2, y2, color);
 800119c:	e17ffc0f 	ldh	r5,-16(fp)
 80011a0:	e1bffd0f 	ldh	r6,-12(fp)
 80011a4:	e1fffe0f 	ldh	r7,-8(fp)
 80011a8:	e0bfff0f 	ldh	r2,-4(fp)
 80011ac:	d8800015 	stw	r2,0(sp)
 80011b0:	e0800517 	ldw	r2,20(fp)
 80011b4:	d8800115 	stw	r2,4(sp)
 80011b8:	e13ff917 	ldw	r4,-28(fp)
 80011bc:	8000a680 	call	8000a68 <drawLine>
	drawLine(psInst,x2, y2, x0, y0, color);
 80011c0:	e17ffe0f 	ldh	r5,-8(fp)
 80011c4:	e1bfff0f 	ldh	r6,-4(fp)
 80011c8:	e1fffa0f 	ldh	r7,-24(fp)
 80011cc:	e0bffb0f 	ldh	r2,-20(fp)
 80011d0:	d8800015 	stw	r2,0(sp)
 80011d4:	e0800517 	ldw	r2,20(fp)
 80011d8:	d8800115 	stw	r2,4(sp)
 80011dc:	e13ff917 	ldw	r4,-28(fp)
 80011e0:	8000a680 	call	8000a68 <drawLine>
}
 80011e4:	e037883a 	mov	sp,fp
 80011e8:	dfc00117 	ldw	ra,4(sp)
 80011ec:	df000017 	ldw	fp,0(sp)
 80011f0:	dec00204 	addi	sp,sp,8
 80011f4:	f800283a 	ret

080011f8 <drawXBitmap>:

//Draw XBitMap Files (*.xbm), exported from GIMP,
//Usage: Export from GIMP to *.xbm, rename *.xbm to *.c and open in editor.
//C Array can be directly used with this function
void drawXBitmap(tAdafruit_GFX *psInst, int16_t x, int16_t y, const uint8_t *bitmap,
		int16_t w, int16_t h, uint32_t color) {
 80011f8:	defff104 	addi	sp,sp,-60
 80011fc:	dfc00e15 	stw	ra,56(sp)
 8001200:	df000d15 	stw	fp,52(sp)
 8001204:	df000d04 	addi	fp,sp,52
 8001208:	e13ff515 	stw	r4,-44(fp)
 800120c:	e1fff815 	stw	r7,-32(fp)
 8001210:	e0800217 	ldw	r2,8(fp)
 8001214:	e0c00317 	ldw	r3,12(fp)
 8001218:	e17ff60d 	sth	r5,-40(fp)
 800121c:	e1bff70d 	sth	r6,-36(fp)
 8001220:	e0bff90d 	sth	r2,-28(fp)
 8001224:	e0fffa0d 	sth	r3,-24(fp)

	int16_t i, j, byteWidth = (w + 7) / 8;
 8001228:	e0bff90f 	ldh	r2,-28(fp)
 800122c:	108001c4 	addi	r2,r2,7
 8001230:	e0bffd15 	stw	r2,-12(fp)
 8001234:	e0fffd17 	ldw	r3,-12(fp)
 8001238:	1804403a 	cmpge	r2,r3,zero
 800123c:	1000031e 	bne	r2,zero,800124c <drawXBitmap+0x54>
 8001240:	e0bffd17 	ldw	r2,-12(fp)
 8001244:	108001c4 	addi	r2,r2,7
 8001248:	e0bffd15 	stw	r2,-12(fp)
 800124c:	e0fffd17 	ldw	r3,-12(fp)
 8001250:	1805d0fa 	srai	r2,r3,3
 8001254:	e0bff30d 	sth	r2,-52(fp)

	for (j = 0; j < h; j++) {
 8001258:	e03ff38d 	sth	zero,-50(fp)
 800125c:	00005006 	br	80013a0 <drawXBitmap+0x1a8>
		for (i = 0; i < w; i++) {
 8001260:	e03ff40d 	sth	zero,-48(fp)
 8001264:	00004806 	br	8001388 <drawXBitmap+0x190>
			if (bitmap[j * byteWidth + i / 8] & (1 << (i % 8))) {
 8001268:	e13ff38f 	ldh	r4,-50(fp)
 800126c:	e17ff30f 	ldh	r5,-52(fp)
 8001270:	8005e7c0 	call	8005e7c <__mulsi3>
 8001274:	e0bffc15 	stw	r2,-16(fp)
 8001278:	e0bff40f 	ldh	r2,-48(fp)
 800127c:	e0bffe15 	stw	r2,-8(fp)
 8001280:	e0fffe17 	ldw	r3,-8(fp)
 8001284:	1804403a 	cmpge	r2,r3,zero
 8001288:	1000031e 	bne	r2,zero,8001298 <drawXBitmap+0xa0>
 800128c:	e0bffe17 	ldw	r2,-8(fp)
 8001290:	108001c4 	addi	r2,r2,7
 8001294:	e0bffe15 	stw	r2,-8(fp)
 8001298:	e0fffe17 	ldw	r3,-8(fp)
 800129c:	1805d0fa 	srai	r2,r3,3
 80012a0:	10bfffcc 	andi	r2,r2,65535
 80012a4:	10a0001c 	xori	r2,r2,32768
 80012a8:	10a00004 	addi	r2,r2,-32768
 80012ac:	e0fffc17 	ldw	r3,-16(fp)
 80012b0:	1885883a 	add	r2,r3,r2
 80012b4:	1007883a 	mov	r3,r2
 80012b8:	e0bff817 	ldw	r2,-32(fp)
 80012bc:	1885883a 	add	r2,r3,r2
 80012c0:	10800003 	ldbu	r2,0(r2)
 80012c4:	10803fcc 	andi	r2,r2,255
 80012c8:	e0bffb15 	stw	r2,-20(fp)
 80012cc:	e0fff40f 	ldh	r3,-48(fp)
 80012d0:	00a00034 	movhi	r2,32768
 80012d4:	108001c4 	addi	r2,r2,7
 80012d8:	1886703a 	and	r3,r3,r2
 80012dc:	e0ffff15 	stw	r3,-4(fp)
 80012e0:	e0ffff17 	ldw	r3,-4(fp)
 80012e4:	1804403a 	cmpge	r2,r3,zero
 80012e8:	10000a1e 	bne	r2,zero,8001314 <drawXBitmap+0x11c>
 80012ec:	e0bfff17 	ldw	r2,-4(fp)
 80012f0:	10bfffc4 	addi	r2,r2,-1
 80012f4:	e0bfff15 	stw	r2,-4(fp)
 80012f8:	00bffe04 	movi	r2,-8
 80012fc:	e0ffff17 	ldw	r3,-4(fp)
 8001300:	1886b03a 	or	r3,r3,r2
 8001304:	e0ffff15 	stw	r3,-4(fp)
 8001308:	e0bfff17 	ldw	r2,-4(fp)
 800130c:	10800044 	addi	r2,r2,1
 8001310:	e0bfff15 	stw	r2,-4(fp)
 8001314:	e0ffff17 	ldw	r3,-4(fp)
 8001318:	1805883a 	mov	r2,r3
 800131c:	10bfffcc 	andi	r2,r2,65535
 8001320:	10a0001c 	xori	r2,r2,32768
 8001324:	10a00004 	addi	r2,r2,-32768
 8001328:	e0fffb17 	ldw	r3,-20(fp)
 800132c:	1885d83a 	sra	r2,r3,r2
 8001330:	1080004c 	andi	r2,r2,1
 8001334:	10803fcc 	andi	r2,r2,255
 8001338:	1005003a 	cmpeq	r2,r2,zero
 800133c:	10000f1e 	bne	r2,zero,800137c <drawXBitmap+0x184>
				drawPixel(psInst,x + i, y + j, color);
 8001340:	e0fff60b 	ldhu	r3,-40(fp)
 8001344:	e0bff40b 	ldhu	r2,-48(fp)
 8001348:	1885883a 	add	r2,r3,r2
 800134c:	117fffcc 	andi	r5,r2,65535
 8001350:	2960001c 	xori	r5,r5,32768
 8001354:	29600004 	addi	r5,r5,-32768
 8001358:	e0fff70b 	ldhu	r3,-36(fp)
 800135c:	e0bff38b 	ldhu	r2,-50(fp)
 8001360:	1885883a 	add	r2,r3,r2
 8001364:	11bfffcc 	andi	r6,r2,65535
 8001368:	31a0001c 	xori	r6,r6,32768
 800136c:	31a00004 	addi	r6,r6,-32768
 8001370:	e13ff517 	ldw	r4,-44(fp)
 8001374:	e1c00417 	ldw	r7,16(fp)
 8001378:	80024900 	call	8002490 <drawPixel>
		int16_t w, int16_t h, uint32_t color) {

	int16_t i, j, byteWidth = (w + 7) / 8;

	for (j = 0; j < h; j++) {
		for (i = 0; i < w; i++) {
 800137c:	e0bff40b 	ldhu	r2,-48(fp)
 8001380:	10800044 	addi	r2,r2,1
 8001384:	e0bff40d 	sth	r2,-48(fp)
 8001388:	e0fff40f 	ldh	r3,-48(fp)
 800138c:	e0bff90f 	ldh	r2,-28(fp)
 8001390:	18bfb516 	blt	r3,r2,8001268 <drawXBitmap+0x70>
void drawXBitmap(tAdafruit_GFX *psInst, int16_t x, int16_t y, const uint8_t *bitmap,
		int16_t w, int16_t h, uint32_t color) {

	int16_t i, j, byteWidth = (w + 7) / 8;

	for (j = 0; j < h; j++) {
 8001394:	e0bff38b 	ldhu	r2,-50(fp)
 8001398:	10800044 	addi	r2,r2,1
 800139c:	e0bff38d 	sth	r2,-50(fp)
 80013a0:	e0fff38f 	ldh	r3,-50(fp)
 80013a4:	e0bffa0f 	ldh	r2,-24(fp)
 80013a8:	18bfad16 	blt	r3,r2,8001260 <drawXBitmap+0x68>
			if (bitmap[j * byteWidth + i / 8] & (1 << (i % 8))) {
				drawPixel(psInst,x + i, y + j, color);
			}
		}
	}
}
 80013ac:	e037883a 	mov	sp,fp
 80013b0:	dfc00117 	ldw	ra,4(sp)
 80013b4:	df000017 	ldw	fp,0(sp)
 80013b8:	dec00204 	addi	sp,sp,8
 80013bc:	f800283a 	ret

080013c0 <fillCircle>:


void fillCircle(tAdafruit_GFX *psInst, int16_t x0, int16_t y0, int16_t r,
		uint32_t color) {
 80013c0:	defff704 	addi	sp,sp,-36
 80013c4:	dfc00815 	stw	ra,32(sp)
 80013c8:	df000715 	stw	fp,28(sp)
 80013cc:	df000704 	addi	fp,sp,28
 80013d0:	e13ffc15 	stw	r4,-16(fp)
 80013d4:	e17ffd0d 	sth	r5,-12(fp)
 80013d8:	e1bffe0d 	sth	r6,-8(fp)
 80013dc:	e1ffff0d 	sth	r7,-4(fp)
	drawFastVLine(psInst,x0, y0 - r, 2 * r + 1, color);
 80013e0:	e17ffd0f 	ldh	r5,-12(fp)
 80013e4:	e0fffe0b 	ldhu	r3,-8(fp)
 80013e8:	e0bfff0b 	ldhu	r2,-4(fp)
 80013ec:	1885c83a 	sub	r2,r3,r2
 80013f0:	11bfffcc 	andi	r6,r2,65535
 80013f4:	31a0001c 	xori	r6,r6,32768
 80013f8:	31a00004 	addi	r6,r6,-32768
 80013fc:	e0bfff0f 	ldh	r2,-4(fp)
 8001400:	1085883a 	add	r2,r2,r2
 8001404:	10800044 	addi	r2,r2,1
 8001408:	11ffffcc 	andi	r7,r2,65535
 800140c:	39e0001c 	xori	r7,r7,32768
 8001410:	39e00004 	addi	r7,r7,-32768
 8001414:	e0800217 	ldw	r2,8(fp)
 8001418:	d8800015 	stw	r2,0(sp)
 800141c:	e13ffc17 	ldw	r4,-16(fp)
 8001420:	8000c800 	call	8000c80 <drawFastVLine>
	fillCircleHelper(psInst,x0, y0, r, 3, 0, color);
 8001424:	e17ffd0f 	ldh	r5,-12(fp)
 8001428:	e1bffe0f 	ldh	r6,-8(fp)
 800142c:	e1ffff0f 	ldh	r7,-4(fp)
 8001430:	008000c4 	movi	r2,3
 8001434:	d8800015 	stw	r2,0(sp)
 8001438:	d8000115 	stw	zero,4(sp)
 800143c:	e0800217 	ldw	r2,8(fp)
 8001440:	d8800215 	stw	r2,8(sp)
 8001444:	e13ffc17 	ldw	r4,-16(fp)
 8001448:	80014600 	call	8001460 <fillCircleHelper>
}
 800144c:	e037883a 	mov	sp,fp
 8001450:	dfc00117 	ldw	ra,4(sp)
 8001454:	df000017 	ldw	fp,0(sp)
 8001458:	dec00204 	addi	sp,sp,8
 800145c:	f800283a 	ret

08001460 <fillCircleHelper>:

// Used to do circles and roundrects
void fillCircleHelper(tAdafruit_GFX *psInst, int16_t x0, int16_t y0, int16_t r,
		uint8_t cornername, int16_t delta, uint32_t color) {
 8001460:	defff404 	addi	sp,sp,-48
 8001464:	dfc00b15 	stw	ra,44(sp)
 8001468:	df000a15 	stw	fp,40(sp)
 800146c:	df000a04 	addi	fp,sp,40
 8001470:	e13ffa15 	stw	r4,-24(fp)
 8001474:	e0800217 	ldw	r2,8(fp)
 8001478:	e0c00317 	ldw	r3,12(fp)
 800147c:	e17ffb0d 	sth	r5,-20(fp)
 8001480:	e1bffc0d 	sth	r6,-16(fp)
 8001484:	e1fffd0d 	sth	r7,-12(fp)
 8001488:	e0bffe05 	stb	r2,-8(fp)
 800148c:	e0ffff0d 	sth	r3,-4(fp)

	int16_t f = 1 - r;
 8001490:	e0fffd0b 	ldhu	r3,-12(fp)
 8001494:	00800044 	movi	r2,1
 8001498:	10c5c83a 	sub	r2,r2,r3
 800149c:	e0bff90d 	sth	r2,-28(fp)
	int16_t ddF_x = 1;
 80014a0:	00800044 	movi	r2,1
 80014a4:	e0bff88d 	sth	r2,-30(fp)
	int16_t ddF_y = -2 * r;
 80014a8:	e0bffd0f 	ldh	r2,-12(fp)
 80014ac:	1085883a 	add	r2,r2,r2
 80014b0:	0085c83a 	sub	r2,zero,r2
 80014b4:	e0bff80d 	sth	r2,-32(fp)
	int16_t x = 0;
 80014b8:	e03ff78d 	sth	zero,-34(fp)
	int16_t y = r;
 80014bc:	e0bffd0b 	ldhu	r2,-12(fp)
 80014c0:	e0bff70d 	sth	r2,-36(fp)

	while (x < y) {
 80014c4:	00008406 	br	80016d8 <fillCircleHelper+0x278>
		if (f >= 0) {
 80014c8:	e0bff90f 	ldh	r2,-28(fp)
 80014cc:	1004803a 	cmplt	r2,r2,zero
 80014d0:	10000a1e 	bne	r2,zero,80014fc <fillCircleHelper+0x9c>
			y--;
 80014d4:	e0bff70b 	ldhu	r2,-36(fp)
 80014d8:	10bfffc4 	addi	r2,r2,-1
 80014dc:	e0bff70d 	sth	r2,-36(fp)
			ddF_y += 2;
 80014e0:	e0bff80b 	ldhu	r2,-32(fp)
 80014e4:	10800084 	addi	r2,r2,2
 80014e8:	e0bff80d 	sth	r2,-32(fp)
			f += ddF_y;
 80014ec:	e0fff90b 	ldhu	r3,-28(fp)
 80014f0:	e0bff80b 	ldhu	r2,-32(fp)
 80014f4:	1885883a 	add	r2,r3,r2
 80014f8:	e0bff90d 	sth	r2,-28(fp)
		}
		x++;
 80014fc:	e0bff78b 	ldhu	r2,-34(fp)
 8001500:	10800044 	addi	r2,r2,1
 8001504:	e0bff78d 	sth	r2,-34(fp)
		ddF_x += 2;
 8001508:	e0bff88b 	ldhu	r2,-30(fp)
 800150c:	10800084 	addi	r2,r2,2
 8001510:	e0bff88d 	sth	r2,-30(fp)
		f += ddF_x;
 8001514:	e0fff90b 	ldhu	r3,-28(fp)
 8001518:	e0bff88b 	ldhu	r2,-30(fp)
 800151c:	1885883a 	add	r2,r3,r2
 8001520:	e0bff90d 	sth	r2,-28(fp)

		if (cornername & 0x1) {
 8001524:	e0bffe03 	ldbu	r2,-8(fp)
 8001528:	1080004c 	andi	r2,r2,1
 800152c:	10803fcc 	andi	r2,r2,255
 8001530:	1005003a 	cmpeq	r2,r2,zero
 8001534:	1000321e 	bne	r2,zero,8001600 <fillCircleHelper+0x1a0>
			drawFastVLine(psInst,x0 + x, y0 - y, 2 * y + 1 + delta, color);
 8001538:	e0fffb0b 	ldhu	r3,-20(fp)
 800153c:	e0bff78b 	ldhu	r2,-34(fp)
 8001540:	1885883a 	add	r2,r3,r2
 8001544:	117fffcc 	andi	r5,r2,65535
 8001548:	2960001c 	xori	r5,r5,32768
 800154c:	29600004 	addi	r5,r5,-32768
 8001550:	e0fffc0b 	ldhu	r3,-16(fp)
 8001554:	e0bff70b 	ldhu	r2,-36(fp)
 8001558:	1885c83a 	sub	r2,r3,r2
 800155c:	11bfffcc 	andi	r6,r2,65535
 8001560:	31a0001c 	xori	r6,r6,32768
 8001564:	31a00004 	addi	r6,r6,-32768
 8001568:	e0bff70f 	ldh	r2,-36(fp)
 800156c:	1085883a 	add	r2,r2,r2
 8001570:	1007883a 	mov	r3,r2
 8001574:	e0bfff0b 	ldhu	r2,-4(fp)
 8001578:	1885883a 	add	r2,r3,r2
 800157c:	10800044 	addi	r2,r2,1
 8001580:	11ffffcc 	andi	r7,r2,65535
 8001584:	39e0001c 	xori	r7,r7,32768
 8001588:	39e00004 	addi	r7,r7,-32768
 800158c:	e0800417 	ldw	r2,16(fp)
 8001590:	d8800015 	stw	r2,0(sp)
 8001594:	e13ffa17 	ldw	r4,-24(fp)
 8001598:	8000c800 	call	8000c80 <drawFastVLine>
			drawFastVLine(psInst,x0 + y, y0 - x, 2 * x + 1 + delta, color);
 800159c:	e0fffb0b 	ldhu	r3,-20(fp)
 80015a0:	e0bff70b 	ldhu	r2,-36(fp)
 80015a4:	1885883a 	add	r2,r3,r2
 80015a8:	117fffcc 	andi	r5,r2,65535
 80015ac:	2960001c 	xori	r5,r5,32768
 80015b0:	29600004 	addi	r5,r5,-32768
 80015b4:	e0fffc0b 	ldhu	r3,-16(fp)
 80015b8:	e0bff78b 	ldhu	r2,-34(fp)
 80015bc:	1885c83a 	sub	r2,r3,r2
 80015c0:	11bfffcc 	andi	r6,r2,65535
 80015c4:	31a0001c 	xori	r6,r6,32768
 80015c8:	31a00004 	addi	r6,r6,-32768
 80015cc:	e0bff78f 	ldh	r2,-34(fp)
 80015d0:	1085883a 	add	r2,r2,r2
 80015d4:	1007883a 	mov	r3,r2
 80015d8:	e0bfff0b 	ldhu	r2,-4(fp)
 80015dc:	1885883a 	add	r2,r3,r2
 80015e0:	10800044 	addi	r2,r2,1
 80015e4:	11ffffcc 	andi	r7,r2,65535
 80015e8:	39e0001c 	xori	r7,r7,32768
 80015ec:	39e00004 	addi	r7,r7,-32768
 80015f0:	e0800417 	ldw	r2,16(fp)
 80015f4:	d8800015 	stw	r2,0(sp)
 80015f8:	e13ffa17 	ldw	r4,-24(fp)
 80015fc:	8000c800 	call	8000c80 <drawFastVLine>
		}
		if (cornername & 0x2) {
 8001600:	e0bffe03 	ldbu	r2,-8(fp)
 8001604:	1080008c 	andi	r2,r2,2
 8001608:	1005003a 	cmpeq	r2,r2,zero
 800160c:	1000321e 	bne	r2,zero,80016d8 <fillCircleHelper+0x278>
			drawFastVLine(psInst,x0 - x, y0 - y, 2 * y + 1 + delta, color);
 8001610:	e0fffb0b 	ldhu	r3,-20(fp)
 8001614:	e0bff78b 	ldhu	r2,-34(fp)
 8001618:	1885c83a 	sub	r2,r3,r2
 800161c:	117fffcc 	andi	r5,r2,65535
 8001620:	2960001c 	xori	r5,r5,32768
 8001624:	29600004 	addi	r5,r5,-32768
 8001628:	e0fffc0b 	ldhu	r3,-16(fp)
 800162c:	e0bff70b 	ldhu	r2,-36(fp)
 8001630:	1885c83a 	sub	r2,r3,r2
 8001634:	11bfffcc 	andi	r6,r2,65535
 8001638:	31a0001c 	xori	r6,r6,32768
 800163c:	31a00004 	addi	r6,r6,-32768
 8001640:	e0bff70f 	ldh	r2,-36(fp)
 8001644:	1085883a 	add	r2,r2,r2
 8001648:	1007883a 	mov	r3,r2
 800164c:	e0bfff0b 	ldhu	r2,-4(fp)
 8001650:	1885883a 	add	r2,r3,r2
 8001654:	10800044 	addi	r2,r2,1
 8001658:	11ffffcc 	andi	r7,r2,65535
 800165c:	39e0001c 	xori	r7,r7,32768
 8001660:	39e00004 	addi	r7,r7,-32768
 8001664:	e0800417 	ldw	r2,16(fp)
 8001668:	d8800015 	stw	r2,0(sp)
 800166c:	e13ffa17 	ldw	r4,-24(fp)
 8001670:	8000c800 	call	8000c80 <drawFastVLine>
			drawFastVLine(psInst,x0 - y, y0 - x, 2 * x + 1 + delta, color);
 8001674:	e0fffb0b 	ldhu	r3,-20(fp)
 8001678:	e0bff70b 	ldhu	r2,-36(fp)
 800167c:	1885c83a 	sub	r2,r3,r2
 8001680:	117fffcc 	andi	r5,r2,65535
 8001684:	2960001c 	xori	r5,r5,32768
 8001688:	29600004 	addi	r5,r5,-32768
 800168c:	e0fffc0b 	ldhu	r3,-16(fp)
 8001690:	e0bff78b 	ldhu	r2,-34(fp)
 8001694:	1885c83a 	sub	r2,r3,r2
 8001698:	11bfffcc 	andi	r6,r2,65535
 800169c:	31a0001c 	xori	r6,r6,32768
 80016a0:	31a00004 	addi	r6,r6,-32768
 80016a4:	e0bff78f 	ldh	r2,-34(fp)
 80016a8:	1085883a 	add	r2,r2,r2
 80016ac:	1007883a 	mov	r3,r2
 80016b0:	e0bfff0b 	ldhu	r2,-4(fp)
 80016b4:	1885883a 	add	r2,r3,r2
 80016b8:	10800044 	addi	r2,r2,1
 80016bc:	11ffffcc 	andi	r7,r2,65535
 80016c0:	39e0001c 	xori	r7,r7,32768
 80016c4:	39e00004 	addi	r7,r7,-32768
 80016c8:	e0800417 	ldw	r2,16(fp)
 80016cc:	d8800015 	stw	r2,0(sp)
 80016d0:	e13ffa17 	ldw	r4,-24(fp)
 80016d4:	8000c800 	call	8000c80 <drawFastVLine>
	int16_t ddF_x = 1;
	int16_t ddF_y = -2 * r;
	int16_t x = 0;
	int16_t y = r;

	while (x < y) {
 80016d8:	e0fff78f 	ldh	r3,-34(fp)
 80016dc:	e0bff70f 	ldh	r2,-36(fp)
 80016e0:	18bf7916 	blt	r3,r2,80014c8 <fillCircleHelper+0x68>
		if (cornername & 0x2) {
			drawFastVLine(psInst,x0 - x, y0 - y, 2 * y + 1 + delta, color);
			drawFastVLine(psInst,x0 - y, y0 - x, 2 * x + 1 + delta, color);
		}
	}
}
 80016e4:	e037883a 	mov	sp,fp
 80016e8:	dfc00117 	ldw	ra,4(sp)
 80016ec:	df000017 	ldw	fp,0(sp)
 80016f0:	dec00204 	addi	sp,sp,8
 80016f4:	f800283a 	ret

080016f8 <fillRect>:



void fillRect(tAdafruit_GFX *psInst, int16_t x, int16_t y, int16_t w, int16_t h,
		uint32_t color) {
 80016f8:	defff704 	addi	sp,sp,-36
 80016fc:	dfc00815 	stw	ra,32(sp)
 8001700:	df000715 	stw	fp,28(sp)
 8001704:	df000704 	addi	fp,sp,28
 8001708:	e13ffb15 	stw	r4,-20(fp)
 800170c:	e0800217 	ldw	r2,8(fp)
 8001710:	e17ffc0d 	sth	r5,-16(fp)
 8001714:	e1bffd0d 	sth	r6,-12(fp)
 8001718:	e1fffe0d 	sth	r7,-8(fp)
 800171c:	e0bfff0d 	sth	r2,-4(fp)
	// Update in subclasses if desired!
	int16_t i;
	for (i = x; i < x + w; i++) {
 8001720:	e0bffc0b 	ldhu	r2,-16(fp)
 8001724:	e0bffa0d 	sth	r2,-24(fp)
 8001728:	00000a06 	br	8001754 <fillRect+0x5c>
		drawFastVLine(psInst, i, y, h, color);
 800172c:	e17ffa0f 	ldh	r5,-24(fp)
 8001730:	e1bffd0f 	ldh	r6,-12(fp)
 8001734:	e1ffff0f 	ldh	r7,-4(fp)
 8001738:	e0800317 	ldw	r2,12(fp)
 800173c:	d8800015 	stw	r2,0(sp)
 8001740:	e13ffb17 	ldw	r4,-20(fp)
 8001744:	8000c800 	call	8000c80 <drawFastVLine>

void fillRect(tAdafruit_GFX *psInst, int16_t x, int16_t y, int16_t w, int16_t h,
		uint32_t color) {
	// Update in subclasses if desired!
	int16_t i;
	for (i = x; i < x + w; i++) {
 8001748:	e0bffa0b 	ldhu	r2,-24(fp)
 800174c:	10800044 	addi	r2,r2,1
 8001750:	e0bffa0d 	sth	r2,-24(fp)
 8001754:	e13ffa0f 	ldh	r4,-24(fp)
 8001758:	e0fffc0f 	ldh	r3,-16(fp)
 800175c:	e0bffe0f 	ldh	r2,-8(fp)
 8001760:	1885883a 	add	r2,r3,r2
 8001764:	20bff116 	blt	r4,r2,800172c <fillRect+0x34>
		drawFastVLine(psInst, i, y, h, color);
	}
}
 8001768:	e037883a 	mov	sp,fp
 800176c:	dfc00117 	ldw	ra,4(sp)
 8001770:	df000017 	ldw	fp,0(sp)
 8001774:	dec00204 	addi	sp,sp,8
 8001778:	f800283a 	ret

0800177c <fillRoundRect>:



// Fill a rounded rectangle
void fillRoundRect(tAdafruit_GFX *psInst, int16_t x, int16_t y, int16_t w, int16_t h,
		int16_t r, uint32_t color) {
 800177c:	defff504 	addi	sp,sp,-44
 8001780:	dfc00a15 	stw	ra,40(sp)
 8001784:	df000915 	stw	fp,36(sp)
 8001788:	df000904 	addi	fp,sp,36
 800178c:	e13ffa15 	stw	r4,-24(fp)
 8001790:	e0800217 	ldw	r2,8(fp)
 8001794:	e0c00317 	ldw	r3,12(fp)
 8001798:	e17ffb0d 	sth	r5,-20(fp)
 800179c:	e1bffc0d 	sth	r6,-16(fp)
 80017a0:	e1fffd0d 	sth	r7,-12(fp)
 80017a4:	e0bffe0d 	sth	r2,-8(fp)
 80017a8:	e0ffff0d 	sth	r3,-4(fp)
	// smarter version
	fillRect(psInst,x + r, y, w - 2 * r, h, color);
 80017ac:	e0fffb0b 	ldhu	r3,-20(fp)
 80017b0:	e0bfff0b 	ldhu	r2,-4(fp)
 80017b4:	1885883a 	add	r2,r3,r2
 80017b8:	117fffcc 	andi	r5,r2,65535
 80017bc:	2960001c 	xori	r5,r5,32768
 80017c0:	29600004 	addi	r5,r5,-32768
 80017c4:	e1bffc0f 	ldh	r6,-16(fp)
 80017c8:	e0fffd0b 	ldhu	r3,-12(fp)
 80017cc:	e0bfff0f 	ldh	r2,-4(fp)
 80017d0:	1085883a 	add	r2,r2,r2
 80017d4:	1885c83a 	sub	r2,r3,r2
 80017d8:	11ffffcc 	andi	r7,r2,65535
 80017dc:	39e0001c 	xori	r7,r7,32768
 80017e0:	39e00004 	addi	r7,r7,-32768
 80017e4:	e0bffe0f 	ldh	r2,-8(fp)
 80017e8:	d8800015 	stw	r2,0(sp)
 80017ec:	e0800417 	ldw	r2,16(fp)
 80017f0:	d8800115 	stw	r2,4(sp)
 80017f4:	e13ffa17 	ldw	r4,-24(fp)
 80017f8:	80016f80 	call	80016f8 <fillRect>

	// draw four corners
	fillCircleHelper(psInst,x + w - r - 1, y + r, r, 1, h - 2 * r - 1, color);
 80017fc:	e0fffb0b 	ldhu	r3,-20(fp)
 8001800:	e0bffd0b 	ldhu	r2,-12(fp)
 8001804:	1885883a 	add	r2,r3,r2
 8001808:	1007883a 	mov	r3,r2
 800180c:	e0bfff0b 	ldhu	r2,-4(fp)
 8001810:	1885c83a 	sub	r2,r3,r2
 8001814:	10bfffc4 	addi	r2,r2,-1
 8001818:	117fffcc 	andi	r5,r2,65535
 800181c:	2960001c 	xori	r5,r5,32768
 8001820:	29600004 	addi	r5,r5,-32768
 8001824:	e0fffc0b 	ldhu	r3,-16(fp)
 8001828:	e0bfff0b 	ldhu	r2,-4(fp)
 800182c:	1885883a 	add	r2,r3,r2
 8001830:	11bfffcc 	andi	r6,r2,65535
 8001834:	31a0001c 	xori	r6,r6,32768
 8001838:	31a00004 	addi	r6,r6,-32768
 800183c:	e1ffff0f 	ldh	r7,-4(fp)
 8001840:	e0fffe0b 	ldhu	r3,-8(fp)
 8001844:	e0bfff0f 	ldh	r2,-4(fp)
 8001848:	1085883a 	add	r2,r2,r2
 800184c:	1885c83a 	sub	r2,r3,r2
 8001850:	10bfffc4 	addi	r2,r2,-1
 8001854:	10ffffcc 	andi	r3,r2,65535
 8001858:	18e0001c 	xori	r3,r3,32768
 800185c:	18e00004 	addi	r3,r3,-32768
 8001860:	00800044 	movi	r2,1
 8001864:	d8800015 	stw	r2,0(sp)
 8001868:	d8c00115 	stw	r3,4(sp)
 800186c:	e0800417 	ldw	r2,16(fp)
 8001870:	d8800215 	stw	r2,8(sp)
 8001874:	e13ffa17 	ldw	r4,-24(fp)
 8001878:	80014600 	call	8001460 <fillCircleHelper>
	fillCircleHelper(psInst,x + r, y + r, r, 2, h - 2 * r - 1, color);
 800187c:	e0fffb0b 	ldhu	r3,-20(fp)
 8001880:	e0bfff0b 	ldhu	r2,-4(fp)
 8001884:	1885883a 	add	r2,r3,r2
 8001888:	117fffcc 	andi	r5,r2,65535
 800188c:	2960001c 	xori	r5,r5,32768
 8001890:	29600004 	addi	r5,r5,-32768
 8001894:	e0fffc0b 	ldhu	r3,-16(fp)
 8001898:	e0bfff0b 	ldhu	r2,-4(fp)
 800189c:	1885883a 	add	r2,r3,r2
 80018a0:	11bfffcc 	andi	r6,r2,65535
 80018a4:	31a0001c 	xori	r6,r6,32768
 80018a8:	31a00004 	addi	r6,r6,-32768
 80018ac:	e1ffff0f 	ldh	r7,-4(fp)
 80018b0:	e0fffe0b 	ldhu	r3,-8(fp)
 80018b4:	e0bfff0f 	ldh	r2,-4(fp)
 80018b8:	1085883a 	add	r2,r2,r2
 80018bc:	1885c83a 	sub	r2,r3,r2
 80018c0:	10bfffc4 	addi	r2,r2,-1
 80018c4:	10ffffcc 	andi	r3,r2,65535
 80018c8:	18e0001c 	xori	r3,r3,32768
 80018cc:	18e00004 	addi	r3,r3,-32768
 80018d0:	00800084 	movi	r2,2
 80018d4:	d8800015 	stw	r2,0(sp)
 80018d8:	d8c00115 	stw	r3,4(sp)
 80018dc:	e0800417 	ldw	r2,16(fp)
 80018e0:	d8800215 	stw	r2,8(sp)
 80018e4:	e13ffa17 	ldw	r4,-24(fp)
 80018e8:	80014600 	call	8001460 <fillCircleHelper>
}
 80018ec:	e037883a 	mov	sp,fp
 80018f0:	dfc00117 	ldw	ra,4(sp)
 80018f4:	df000017 	ldw	fp,0(sp)
 80018f8:	dec00204 	addi	sp,sp,8
 80018fc:	f800283a 	ret

08001900 <fillScreen>:

void fillScreen(tAdafruit_GFX *psInst, uint32_t color) {
 8001900:	defffa04 	addi	sp,sp,-24
 8001904:	dfc00515 	stw	ra,20(sp)
 8001908:	df000415 	stw	fp,16(sp)
 800190c:	df000404 	addi	fp,sp,16
 8001910:	e13ffe15 	stw	r4,-8(fp)
 8001914:	e17fff15 	stw	r5,-4(fp)
	fillRect(psInst,0, 0, psInst->_width, psInst->_height, color);
 8001918:	e0bffe17 	ldw	r2,-8(fp)
 800191c:	1080010b 	ldhu	r2,4(r2)
 8001920:	11ffffcc 	andi	r7,r2,65535
 8001924:	39e0001c 	xori	r7,r7,32768
 8001928:	39e00004 	addi	r7,r7,-32768
 800192c:	e0bffe17 	ldw	r2,-8(fp)
 8001930:	1080018b 	ldhu	r2,6(r2)
 8001934:	10bfffcc 	andi	r2,r2,65535
 8001938:	10a0001c 	xori	r2,r2,32768
 800193c:	10a00004 	addi	r2,r2,-32768
 8001940:	d8800015 	stw	r2,0(sp)
 8001944:	e0bfff17 	ldw	r2,-4(fp)
 8001948:	d8800115 	stw	r2,4(sp)
 800194c:	e13ffe17 	ldw	r4,-8(fp)
 8001950:	000b883a 	mov	r5,zero
 8001954:	000d883a 	mov	r6,zero
 8001958:	80016f80 	call	80016f8 <fillRect>
}
 800195c:	e037883a 	mov	sp,fp
 8001960:	dfc00117 	ldw	ra,4(sp)
 8001964:	df000017 	ldw	fp,0(sp)
 8001968:	dec00204 	addi	sp,sp,8
 800196c:	f800283a 	ret

08001970 <fillTriangle>:

// Fill a triangle
void fillTriangle(tAdafruit_GFX *psInst, int16_t x0, int16_t y0, int16_t x1, int16_t y1,
		int16_t x2, int16_t y2, uint32_t color) {
 8001970:	deffeb04 	addi	sp,sp,-84
 8001974:	dfc01415 	stw	ra,80(sp)
 8001978:	df001315 	stw	fp,76(sp)
 800197c:	df001304 	addi	fp,sp,76
 8001980:	e13ff915 	stw	r4,-28(fp)
 8001984:	e0800217 	ldw	r2,8(fp)
 8001988:	e0c00317 	ldw	r3,12(fp)
 800198c:	e1000417 	ldw	r4,16(fp)
 8001990:	e17ffa0d 	sth	r5,-24(fp)
 8001994:	e1bffb0d 	sth	r6,-20(fp)
 8001998:	e1fffc0d 	sth	r7,-16(fp)
 800199c:	e0bffd0d 	sth	r2,-12(fp)
 80019a0:	e0fffe0d 	sth	r3,-8(fp)
 80019a4:	e13fff0d 	sth	r4,-4(fp)

	int16_t a, b, y, last;

	// Sort coordinates by Y order (y2 >= y1 >= y0)
	if (y0 > y1) {
 80019a8:	e0fffb0f 	ldh	r3,-20(fp)
 80019ac:	e0bffd0f 	ldh	r2,-12(fp)
 80019b0:	10c00c0e 	bge	r2,r3,80019e4 <fillTriangle+0x74>
		swap(y0, y1);
 80019b4:	e0bffb0b 	ldhu	r2,-20(fp)
 80019b8:	e0bff18d 	sth	r2,-58(fp)
 80019bc:	e0bffd0b 	ldhu	r2,-12(fp)
 80019c0:	e0bffb0d 	sth	r2,-20(fp)
 80019c4:	e0bff18b 	ldhu	r2,-58(fp)
 80019c8:	e0bffd0d 	sth	r2,-12(fp)
		swap(x0, x1);
 80019cc:	e0bffa0b 	ldhu	r2,-24(fp)
 80019d0:	e0bff10d 	sth	r2,-60(fp)
 80019d4:	e0bffc0b 	ldhu	r2,-16(fp)
 80019d8:	e0bffa0d 	sth	r2,-24(fp)
 80019dc:	e0bff10b 	ldhu	r2,-60(fp)
 80019e0:	e0bffc0d 	sth	r2,-16(fp)
	}
	if (y1 > y2) {
 80019e4:	e0fffd0f 	ldh	r3,-12(fp)
 80019e8:	e0bfff0f 	ldh	r2,-4(fp)
 80019ec:	10c00c0e 	bge	r2,r3,8001a20 <fillTriangle+0xb0>
		swap(y2, y1);
 80019f0:	e0bfff0b 	ldhu	r2,-4(fp)
 80019f4:	e0bff08d 	sth	r2,-62(fp)
 80019f8:	e0bffd0b 	ldhu	r2,-12(fp)
 80019fc:	e0bfff0d 	sth	r2,-4(fp)
 8001a00:	e0bff08b 	ldhu	r2,-62(fp)
 8001a04:	e0bffd0d 	sth	r2,-12(fp)
		swap(x2, x1);
 8001a08:	e0bffe0b 	ldhu	r2,-8(fp)
 8001a0c:	e0bff00d 	sth	r2,-64(fp)
 8001a10:	e0bffc0b 	ldhu	r2,-16(fp)
 8001a14:	e0bffe0d 	sth	r2,-8(fp)
 8001a18:	e0bff00b 	ldhu	r2,-64(fp)
 8001a1c:	e0bffc0d 	sth	r2,-16(fp)
	}
	if (y0 > y1) {
 8001a20:	e0fffb0f 	ldh	r3,-20(fp)
 8001a24:	e0bffd0f 	ldh	r2,-12(fp)
 8001a28:	10c00c0e 	bge	r2,r3,8001a5c <fillTriangle+0xec>
		swap(y0, y1);
 8001a2c:	e0bffb0b 	ldhu	r2,-20(fp)
 8001a30:	e0bfef8d 	sth	r2,-66(fp)
 8001a34:	e0bffd0b 	ldhu	r2,-12(fp)
 8001a38:	e0bffb0d 	sth	r2,-20(fp)
 8001a3c:	e0bfef8b 	ldhu	r2,-66(fp)
 8001a40:	e0bffd0d 	sth	r2,-12(fp)
		swap(x0, x1);
 8001a44:	e0bffa0b 	ldhu	r2,-24(fp)
 8001a48:	e0bfef0d 	sth	r2,-68(fp)
 8001a4c:	e0bffc0b 	ldhu	r2,-16(fp)
 8001a50:	e0bffa0d 	sth	r2,-24(fp)
 8001a54:	e0bfef0b 	ldhu	r2,-68(fp)
 8001a58:	e0bffc0d 	sth	r2,-16(fp)
	}

	if (y0 == y2) { // Handle awkward all-on-same-line case as its own thing
 8001a5c:	e0fffb0f 	ldh	r3,-20(fp)
 8001a60:	e0bfff0f 	ldh	r2,-4(fp)
 8001a64:	1880281e 	bne	r3,r2,8001b08 <fillTriangle+0x198>
		a = b = x0;
 8001a68:	e0bffa0b 	ldhu	r2,-24(fp)
 8001a6c:	e0bff80d 	sth	r2,-32(fp)
 8001a70:	e0bff80b 	ldhu	r2,-32(fp)
 8001a74:	e0bff88d 	sth	r2,-30(fp)
		if (x1 < a)
 8001a78:	e0fffc0f 	ldh	r3,-16(fp)
 8001a7c:	e0bff88f 	ldh	r2,-30(fp)
 8001a80:	1880030e 	bge	r3,r2,8001a90 <fillTriangle+0x120>
			a = x1;
 8001a84:	e0bffc0b 	ldhu	r2,-16(fp)
 8001a88:	e0bff88d 	sth	r2,-30(fp)
 8001a8c:	00000506 	br	8001aa4 <fillTriangle+0x134>
		else if (x1 > b)
 8001a90:	e0fffc0f 	ldh	r3,-16(fp)
 8001a94:	e0bff80f 	ldh	r2,-32(fp)
 8001a98:	10c0020e 	bge	r2,r3,8001aa4 <fillTriangle+0x134>
			b = x1;
 8001a9c:	e0bffc0b 	ldhu	r2,-16(fp)
 8001aa0:	e0bff80d 	sth	r2,-32(fp)
		if (x2 < a)
 8001aa4:	e0fffe0f 	ldh	r3,-8(fp)
 8001aa8:	e0bff88f 	ldh	r2,-30(fp)
 8001aac:	1880030e 	bge	r3,r2,8001abc <fillTriangle+0x14c>
			a = x2;
 8001ab0:	e0bffe0b 	ldhu	r2,-8(fp)
 8001ab4:	e0bff88d 	sth	r2,-30(fp)
 8001ab8:	00000506 	br	8001ad0 <fillTriangle+0x160>
		else if (x2 > b)
 8001abc:	e0fffe0f 	ldh	r3,-8(fp)
 8001ac0:	e0bff80f 	ldh	r2,-32(fp)
 8001ac4:	10c0020e 	bge	r2,r3,8001ad0 <fillTriangle+0x160>
			b = x2;
 8001ac8:	e0bffe0b 	ldhu	r2,-8(fp)
 8001acc:	e0bff80d 	sth	r2,-32(fp)
		drawFastHLine(psInst,a, y0, b - a + 1, color);
 8001ad0:	e17ff88f 	ldh	r5,-30(fp)
 8001ad4:	e1bffb0f 	ldh	r6,-20(fp)
 8001ad8:	e0fff80b 	ldhu	r3,-32(fp)
 8001adc:	e0bff88b 	ldhu	r2,-30(fp)
 8001ae0:	1885c83a 	sub	r2,r3,r2
 8001ae4:	10800044 	addi	r2,r2,1
 8001ae8:	11ffffcc 	andi	r7,r2,65535
 8001aec:	39e0001c 	xori	r7,r7,32768
 8001af0:	39e00004 	addi	r7,r7,-32768
 8001af4:	e0800517 	ldw	r2,20(fp)
 8001af8:	d8800015 	stw	r2,0(sp)
 8001afc:	e13ff917 	ldw	r4,-28(fp)
 8001b00:	8000cf00 	call	8000cf0 <drawFastHLine>
		return;
 8001b04:	00009706 	br	8001d64 <fillTriangle+0x3f4>
	}

	int16_t dx01 = x1 - x0, dy01 = y1 - y0, dx02 = x2 - x0, dy02 = y2 - y0,
 8001b08:	e0fffc0b 	ldhu	r3,-16(fp)
 8001b0c:	e0bffa0b 	ldhu	r2,-24(fp)
 8001b10:	1885c83a 	sub	r2,r3,r2
 8001b14:	e0bff68d 	sth	r2,-38(fp)
 8001b18:	e0fffd0b 	ldhu	r3,-12(fp)
 8001b1c:	e0bffb0b 	ldhu	r2,-20(fp)
 8001b20:	1885c83a 	sub	r2,r3,r2
 8001b24:	e0bff60d 	sth	r2,-40(fp)
 8001b28:	e0fffe0b 	ldhu	r3,-8(fp)
 8001b2c:	e0bffa0b 	ldhu	r2,-24(fp)
 8001b30:	1885c83a 	sub	r2,r3,r2
 8001b34:	e0bff58d 	sth	r2,-42(fp)
 8001b38:	e0ffff0b 	ldhu	r3,-4(fp)
 8001b3c:	e0bffb0b 	ldhu	r2,-20(fp)
 8001b40:	1885c83a 	sub	r2,r3,r2
 8001b44:	e0bff50d 	sth	r2,-44(fp)
			dx12 = x2 - x1, dy12 = y2 - y1;
 8001b48:	e0fffe0b 	ldhu	r3,-8(fp)
 8001b4c:	e0bffc0b 	ldhu	r2,-16(fp)
 8001b50:	1885c83a 	sub	r2,r3,r2
 8001b54:	e0bff48d 	sth	r2,-46(fp)
 8001b58:	e0ffff0b 	ldhu	r3,-4(fp)
 8001b5c:	e0bffd0b 	ldhu	r2,-12(fp)
 8001b60:	1885c83a 	sub	r2,r3,r2
 8001b64:	e0bff40d 	sth	r2,-48(fp)
	int32_t sa = 0, sb = 0;
 8001b68:	e03ff315 	stw	zero,-52(fp)
 8001b6c:	e03ff215 	stw	zero,-56(fp)
	// 0-1 and 0-2.  If y1=y2 (flat-bottomed triangle), the scanline y1
	// is included here (and second loop will be skipped, avoiding a /0
	// error there), otherwise scanline y1 is skipped here and handled
	// in the second loop...which also avoids a /0 error here if y0=y1
	// (flat-topped triangle).
	if (y1 == y2)
 8001b70:	e0fffd0f 	ldh	r3,-12(fp)
 8001b74:	e0bfff0f 	ldh	r2,-4(fp)
 8001b78:	1880031e 	bne	r3,r2,8001b88 <fillTriangle+0x218>
		last = y1;   // Include y1 scanline
 8001b7c:	e0bffd0b 	ldhu	r2,-12(fp)
 8001b80:	e0bff70d 	sth	r2,-36(fp)
 8001b84:	00000306 	br	8001b94 <fillTriangle+0x224>
	else
		last = y1 - 1; // Skip it
 8001b88:	e0bffd0b 	ldhu	r2,-12(fp)
 8001b8c:	10bfffc4 	addi	r2,r2,-1
 8001b90:	e0bff70d 	sth	r2,-36(fp)

	for (y = y0; y <= last; y++) {
 8001b94:	e0bffb0b 	ldhu	r2,-20(fp)
 8001b98:	e0bff78d 	sth	r2,-34(fp)
 8001b9c:	00002f06 	br	8001c5c <fillTriangle+0x2ec>
		a = x0 + sa / dy01;
 8001ba0:	e17ff60f 	ldh	r5,-40(fp)
 8001ba4:	e13ff317 	ldw	r4,-52(fp)
 8001ba8:	8005dac0 	call	8005dac <__divsi3>
 8001bac:	1007883a 	mov	r3,r2
 8001bb0:	e0bffa0b 	ldhu	r2,-24(fp)
 8001bb4:	1885883a 	add	r2,r3,r2
 8001bb8:	e0bff88d 	sth	r2,-30(fp)
		b = x0 + sb / dy02;
 8001bbc:	e17ff50f 	ldh	r5,-44(fp)
 8001bc0:	e13ff217 	ldw	r4,-56(fp)
 8001bc4:	8005dac0 	call	8005dac <__divsi3>
 8001bc8:	1007883a 	mov	r3,r2
 8001bcc:	e0bffa0b 	ldhu	r2,-24(fp)
 8001bd0:	1885883a 	add	r2,r3,r2
 8001bd4:	e0bff80d 	sth	r2,-32(fp)
		sa += dx01;
 8001bd8:	e0fff68f 	ldh	r3,-38(fp)
 8001bdc:	e0bff317 	ldw	r2,-52(fp)
 8001be0:	10c5883a 	add	r2,r2,r3
 8001be4:	e0bff315 	stw	r2,-52(fp)
		sb += dx02;
 8001be8:	e0fff58f 	ldh	r3,-42(fp)
 8001bec:	e0bff217 	ldw	r2,-56(fp)
 8001bf0:	10c5883a 	add	r2,r2,r3
 8001bf4:	e0bff215 	stw	r2,-56(fp)
		/* longhand:
		 a = x0 + (x1 - x0) * (y - y0) / (y1 - y0);
		 b = x0 + (x2 - x0) * (y - y0) / (y2 - y0);
		 */
		if (a > b)
 8001bf8:	e0fff88f 	ldh	r3,-30(fp)
 8001bfc:	e0bff80f 	ldh	r2,-32(fp)
 8001c00:	10c0060e 	bge	r2,r3,8001c1c <fillTriangle+0x2ac>
			swap(a, b);
 8001c04:	e0bff88b 	ldhu	r2,-30(fp)
 8001c08:	e0bfee8d 	sth	r2,-70(fp)
 8001c0c:	e0bff80b 	ldhu	r2,-32(fp)
 8001c10:	e0bff88d 	sth	r2,-30(fp)
 8001c14:	e0bfee8b 	ldhu	r2,-70(fp)
 8001c18:	e0bff80d 	sth	r2,-32(fp)
		drawFastHLine(psInst,a, y, b - a + 1, color);
 8001c1c:	e17ff88f 	ldh	r5,-30(fp)
 8001c20:	e1bff78f 	ldh	r6,-34(fp)
 8001c24:	e0fff80b 	ldhu	r3,-32(fp)
 8001c28:	e0bff88b 	ldhu	r2,-30(fp)
 8001c2c:	1885c83a 	sub	r2,r3,r2
 8001c30:	10800044 	addi	r2,r2,1
 8001c34:	11ffffcc 	andi	r7,r2,65535
 8001c38:	39e0001c 	xori	r7,r7,32768
 8001c3c:	39e00004 	addi	r7,r7,-32768
 8001c40:	e0800517 	ldw	r2,20(fp)
 8001c44:	d8800015 	stw	r2,0(sp)
 8001c48:	e13ff917 	ldw	r4,-28(fp)
 8001c4c:	8000cf00 	call	8000cf0 <drawFastHLine>
	if (y1 == y2)
		last = y1;   // Include y1 scanline
	else
		last = y1 - 1; // Skip it

	for (y = y0; y <= last; y++) {
 8001c50:	e0bff78b 	ldhu	r2,-34(fp)
 8001c54:	10800044 	addi	r2,r2,1
 8001c58:	e0bff78d 	sth	r2,-34(fp)
 8001c5c:	e0fff78f 	ldh	r3,-34(fp)
 8001c60:	e0bff70f 	ldh	r2,-36(fp)
 8001c64:	10ffce0e 	bge	r2,r3,8001ba0 <fillTriangle+0x230>
		drawFastHLine(psInst,a, y, b - a + 1, color);
	}

	// For lower part of triangle, find scanline crossings for segments
	// 0-2 and 1-2.  This loop is skipped if y1=y2.
	sa = dx12 * (y - y1);
 8001c68:	e13ff48f 	ldh	r4,-46(fp)
 8001c6c:	e0fff78f 	ldh	r3,-34(fp)
 8001c70:	e0bffd0f 	ldh	r2,-12(fp)
 8001c74:	188bc83a 	sub	r5,r3,r2
 8001c78:	8005e7c0 	call	8005e7c <__mulsi3>
 8001c7c:	e0bff315 	stw	r2,-52(fp)
	sb = dx02 * (y - y0);
 8001c80:	e13ff58f 	ldh	r4,-42(fp)
 8001c84:	e0fff78f 	ldh	r3,-34(fp)
 8001c88:	e0bffb0f 	ldh	r2,-20(fp)
 8001c8c:	188bc83a 	sub	r5,r3,r2
 8001c90:	8005e7c0 	call	8005e7c <__mulsi3>
 8001c94:	e0bff215 	stw	r2,-56(fp)
	for (; y <= y2; y++) {
 8001c98:	00002f06 	br	8001d58 <fillTriangle+0x3e8>
		a = x1 + sa / dy12;
 8001c9c:	e17ff40f 	ldh	r5,-48(fp)
 8001ca0:	e13ff317 	ldw	r4,-52(fp)
 8001ca4:	8005dac0 	call	8005dac <__divsi3>
 8001ca8:	1007883a 	mov	r3,r2
 8001cac:	e0bffc0b 	ldhu	r2,-16(fp)
 8001cb0:	1885883a 	add	r2,r3,r2
 8001cb4:	e0bff88d 	sth	r2,-30(fp)
		b = x0 + sb / dy02;
 8001cb8:	e17ff50f 	ldh	r5,-44(fp)
 8001cbc:	e13ff217 	ldw	r4,-56(fp)
 8001cc0:	8005dac0 	call	8005dac <__divsi3>
 8001cc4:	1007883a 	mov	r3,r2
 8001cc8:	e0bffa0b 	ldhu	r2,-24(fp)
 8001ccc:	1885883a 	add	r2,r3,r2
 8001cd0:	e0bff80d 	sth	r2,-32(fp)
		sa += dx12;
 8001cd4:	e0fff48f 	ldh	r3,-46(fp)
 8001cd8:	e0bff317 	ldw	r2,-52(fp)
 8001cdc:	10c5883a 	add	r2,r2,r3
 8001ce0:	e0bff315 	stw	r2,-52(fp)
		sb += dx02;
 8001ce4:	e0fff58f 	ldh	r3,-42(fp)
 8001ce8:	e0bff217 	ldw	r2,-56(fp)
 8001cec:	10c5883a 	add	r2,r2,r3
 8001cf0:	e0bff215 	stw	r2,-56(fp)
		/* longhand:
		 a = x1 + (x2 - x1) * (y - y1) / (y2 - y1);
		 b = x0 + (x2 - x0) * (y - y0) / (y2 - y0);
		 */
		if (a > b)
 8001cf4:	e0fff88f 	ldh	r3,-30(fp)
 8001cf8:	e0bff80f 	ldh	r2,-32(fp)
 8001cfc:	10c0060e 	bge	r2,r3,8001d18 <fillTriangle+0x3a8>
			swap(a, b);
 8001d00:	e0bff88b 	ldhu	r2,-30(fp)
 8001d04:	e0bfee0d 	sth	r2,-72(fp)
 8001d08:	e0bff80b 	ldhu	r2,-32(fp)
 8001d0c:	e0bff88d 	sth	r2,-30(fp)
 8001d10:	e0bfee0b 	ldhu	r2,-72(fp)
 8001d14:	e0bff80d 	sth	r2,-32(fp)
		drawFastHLine(psInst,a, y, b - a + 1, color);
 8001d18:	e17ff88f 	ldh	r5,-30(fp)
 8001d1c:	e1bff78f 	ldh	r6,-34(fp)
 8001d20:	e0fff80b 	ldhu	r3,-32(fp)
 8001d24:	e0bff88b 	ldhu	r2,-30(fp)
 8001d28:	1885c83a 	sub	r2,r3,r2
 8001d2c:	10800044 	addi	r2,r2,1
 8001d30:	11ffffcc 	andi	r7,r2,65535
 8001d34:	39e0001c 	xori	r7,r7,32768
 8001d38:	39e00004 	addi	r7,r7,-32768
 8001d3c:	e0800517 	ldw	r2,20(fp)
 8001d40:	d8800015 	stw	r2,0(sp)
 8001d44:	e13ff917 	ldw	r4,-28(fp)
 8001d48:	8000cf00 	call	8000cf0 <drawFastHLine>

	// For lower part of triangle, find scanline crossings for segments
	// 0-2 and 1-2.  This loop is skipped if y1=y2.
	sa = dx12 * (y - y1);
	sb = dx02 * (y - y0);
	for (; y <= y2; y++) {
 8001d4c:	e0bff78b 	ldhu	r2,-34(fp)
 8001d50:	10800044 	addi	r2,r2,1
 8001d54:	e0bff78d 	sth	r2,-34(fp)
 8001d58:	e0fff78f 	ldh	r3,-34(fp)
 8001d5c:	e0bfff0f 	ldh	r2,-4(fp)
 8001d60:	10ffce0e 	bge	r2,r3,8001c9c <fillTriangle+0x32c>
		 */
		if (a > b)
			swap(a, b);
		drawFastHLine(psInst,a, y, b - a + 1, color);
	}
}
 8001d64:	e037883a 	mov	sp,fp
 8001d68:	dfc00117 	ldw	ra,4(sp)
 8001d6c:	df000017 	ldw	fp,0(sp)
 8001d70:	dec00204 	addi	sp,sp,8
 8001d74:	f800283a 	ret

08001d78 <Write>:
			}
		}
	}
}*/

uint8_t Write(tAdafruit_GFX *psInst, uint8_t c) {
 8001d78:	defffa04 	addi	sp,sp,-24
 8001d7c:	dfc00515 	stw	ra,20(sp)
 8001d80:	df000415 	stw	fp,16(sp)
 8001d84:	dc400315 	stw	r17,12(sp)
 8001d88:	dc000215 	stw	r16,8(sp)
 8001d8c:	df000204 	addi	fp,sp,8
 8001d90:	e13ffe15 	stw	r4,-8(fp)
 8001d94:	e17fff05 	stb	r5,-4(fp)
	if (c == '\n') {
 8001d98:	e0bfff03 	ldbu	r2,-4(fp)
 8001d9c:	10800298 	cmpnei	r2,r2,10
 8001da0:	10000e1e 	bne	r2,zero,8001ddc <Write+0x64>
		psInst->cursor_y += psInst->textsize * 8;
 8001da4:	e0bffe17 	ldw	r2,-8(fp)
 8001da8:	1080028b 	ldhu	r2,10(r2)
 8001dac:	1007883a 	mov	r3,r2
 8001db0:	e0bffe17 	ldw	r2,-8(fp)
 8001db4:	10800503 	ldbu	r2,20(r2)
 8001db8:	10803fcc 	andi	r2,r2,255
 8001dbc:	100490fa 	slli	r2,r2,3
 8001dc0:	1885883a 	add	r2,r3,r2
 8001dc4:	1007883a 	mov	r3,r2
 8001dc8:	e0bffe17 	ldw	r2,-8(fp)
 8001dcc:	10c0028d 	sth	r3,10(r2)
		psInst->cursor_x = 0;
 8001dd0:	e0bffe17 	ldw	r2,-8(fp)
 8001dd4:	1000020d 	sth	zero,8(r2)
 8001dd8:	00003506 	br	8001eb0 <Write+0x138>
	} else if (c == '\r') {
 8001ddc:	e0bfff03 	ldbu	r2,-4(fp)
 8001de0:	10800360 	cmpeqi	r2,r2,13
 8001de4:	1000321e 	bne	r2,zero,8001eb0 <Write+0x138>
		// skip em
	} else {
		drawChar(psInst, c);
 8001de8:	e17fff03 	ldbu	r5,-4(fp)
 8001dec:	e13ffe17 	ldw	r4,-8(fp)
 8001df0:	8001f340 	call	8001f34 <drawChar>
		psInst->cursor_x += psInst->textsize * 6;
 8001df4:	e0bffe17 	ldw	r2,-8(fp)
 8001df8:	1080020b 	ldhu	r2,8(r2)
 8001dfc:	1021883a 	mov	r16,r2
 8001e00:	e0bffe17 	ldw	r2,-8(fp)
 8001e04:	10800503 	ldbu	r2,20(r2)
 8001e08:	11003fcc 	andi	r4,r2,255
 8001e0c:	01400184 	movi	r5,6
 8001e10:	8005e7c0 	call	8005e7c <__mulsi3>
 8001e14:	8085883a 	add	r2,r16,r2
 8001e18:	1007883a 	mov	r3,r2
 8001e1c:	e0bffe17 	ldw	r2,-8(fp)
 8001e20:	10c0020d 	sth	r3,8(r2)
		if (psInst->wrap && (psInst->cursor_x > (psInst->_width - psInst->textsize * 6))) {
 8001e24:	e0bffe17 	ldw	r2,-8(fp)
 8001e28:	10800703 	ldbu	r2,28(r2)
 8001e2c:	10803fcc 	andi	r2,r2,255
 8001e30:	1005003a 	cmpeq	r2,r2,zero
 8001e34:	10001e1e 	bne	r2,zero,8001eb0 <Write+0x138>
 8001e38:	e0bffe17 	ldw	r2,-8(fp)
 8001e3c:	1080020b 	ldhu	r2,8(r2)
 8001e40:	147fffcc 	andi	r17,r2,65535
 8001e44:	8c60001c 	xori	r17,r17,32768
 8001e48:	8c600004 	addi	r17,r17,-32768
 8001e4c:	e0bffe17 	ldw	r2,-8(fp)
 8001e50:	1080010b 	ldhu	r2,4(r2)
 8001e54:	143fffcc 	andi	r16,r2,65535
 8001e58:	8420001c 	xori	r16,r16,32768
 8001e5c:	84200004 	addi	r16,r16,-32768
 8001e60:	e0bffe17 	ldw	r2,-8(fp)
 8001e64:	10800503 	ldbu	r2,20(r2)
 8001e68:	11003fcc 	andi	r4,r2,255
 8001e6c:	01400184 	movi	r5,6
 8001e70:	8005e7c0 	call	8005e7c <__mulsi3>
 8001e74:	8085c83a 	sub	r2,r16,r2
 8001e78:	14400d0e 	bge	r2,r17,8001eb0 <Write+0x138>
			psInst->cursor_y += psInst->textsize * 8;
 8001e7c:	e0bffe17 	ldw	r2,-8(fp)
 8001e80:	1080028b 	ldhu	r2,10(r2)
 8001e84:	1007883a 	mov	r3,r2
 8001e88:	e0bffe17 	ldw	r2,-8(fp)
 8001e8c:	10800503 	ldbu	r2,20(r2)
 8001e90:	10803fcc 	andi	r2,r2,255
 8001e94:	100490fa 	slli	r2,r2,3
 8001e98:	1885883a 	add	r2,r3,r2
 8001e9c:	1007883a 	mov	r3,r2
 8001ea0:	e0bffe17 	ldw	r2,-8(fp)
 8001ea4:	10c0028d 	sth	r3,10(r2)
			psInst->cursor_x = 0;
 8001ea8:	e0bffe17 	ldw	r2,-8(fp)
 8001eac:	1000020d 	sth	zero,8(r2)
		}
	}
	return 1;
 8001eb0:	00800044 	movi	r2,1
}
 8001eb4:	e037883a 	mov	sp,fp
 8001eb8:	dfc00317 	ldw	ra,12(sp)
 8001ebc:	df000217 	ldw	fp,8(sp)
 8001ec0:	dc400117 	ldw	r17,4(sp)
 8001ec4:	dc000017 	ldw	r16,0(sp)
 8001ec8:	dec00404 	addi	sp,sp,16
 8001ecc:	f800283a 	ret

08001ed0 <Print>:


void Print(tAdafruit_GFX *psInst, unsigned char *str)
{
 8001ed0:	defffc04 	addi	sp,sp,-16
 8001ed4:	dfc00315 	stw	ra,12(sp)
 8001ed8:	df000215 	stw	fp,8(sp)
 8001edc:	df000204 	addi	fp,sp,8
 8001ee0:	e13ffe15 	stw	r4,-8(fp)
 8001ee4:	e17fff15 	stw	r5,-4(fp)
  while (*str){
 8001ee8:	00000806 	br	8001f0c <Print+0x3c>
    Write(psInst, *str++);
 8001eec:	e0bfff17 	ldw	r2,-4(fp)
 8001ef0:	10800003 	ldbu	r2,0(r2)
 8001ef4:	11403fcc 	andi	r5,r2,255
 8001ef8:	e0bfff17 	ldw	r2,-4(fp)
 8001efc:	10800044 	addi	r2,r2,1
 8001f00:	e0bfff15 	stw	r2,-4(fp)
 8001f04:	e13ffe17 	ldw	r4,-8(fp)
 8001f08:	8001d780 	call	8001d78 <Write>
}


void Print(tAdafruit_GFX *psInst, unsigned char *str)
{
  while (*str){
 8001f0c:	e0bfff17 	ldw	r2,-4(fp)
 8001f10:	10800003 	ldbu	r2,0(r2)
 8001f14:	10803fcc 	andi	r2,r2,255
 8001f18:	1004c03a 	cmpne	r2,r2,zero
 8001f1c:	103ff31e 	bne	r2,zero,8001eec <Print+0x1c>
    Write(psInst, *str++);
  }
}
 8001f20:	e037883a 	mov	sp,fp
 8001f24:	dfc00117 	ldw	ra,4(sp)
 8001f28:	df000017 	ldw	fp,0(sp)
 8001f2c:	dec00204 	addi	sp,sp,8
 8001f30:	f800283a 	ret

08001f34 <drawChar>:

// Draw a character
void drawChar(tAdafruit_GFX *psInst, uint8_t c) {
 8001f34:	defff504 	addi	sp,sp,-44
 8001f38:	dfc00a15 	stw	ra,40(sp)
 8001f3c:	df000915 	stw	fp,36(sp)
 8001f40:	dc000815 	stw	r16,32(sp)
 8001f44:	df000804 	addi	fp,sp,32
 8001f48:	e13ffe15 	stw	r4,-8(fp)
 8001f4c:	e17fff05 	stb	r5,-4(fp)
	int16_t x = psInst->cursor_x;
 8001f50:	e0bffe17 	ldw	r2,-8(fp)
 8001f54:	1080020b 	ldhu	r2,8(r2)
 8001f58:	e0bffd8d 	sth	r2,-10(fp)
	int16_t y = psInst->cursor_y;
 8001f5c:	e0bffe17 	ldw	r2,-8(fp)
 8001f60:	1080028b 	ldhu	r2,10(r2)
 8001f64:	e0bffd0d 	sth	r2,-12(fp)
	uint32_t color = psInst->textcolor;
 8001f68:	e0bffe17 	ldw	r2,-8(fp)
 8001f6c:	10800317 	ldw	r2,12(r2)
 8001f70:	e0bffc15 	stw	r2,-16(fp)
	uint16_t bg = psInst->textbgcolor;
 8001f74:	e0bffe17 	ldw	r2,-8(fp)
 8001f78:	10800417 	ldw	r2,16(r2)
 8001f7c:	e0bffb0d 	sth	r2,-20(fp)
	uint8_t size = psInst->textsize;
 8001f80:	e0bffe17 	ldw	r2,-8(fp)
 8001f84:	10800503 	ldbu	r2,20(r2)
 8001f88:	e0bffac5 	stb	r2,-21(fp)

	int8_t i;
	int8_t j;
	if ((x >= psInst->_width) || // Clip right
 8001f8c:	e0bffe17 	ldw	r2,-8(fp)
 8001f90:	1080010b 	ldhu	r2,4(r2)
 8001f94:	10ffffcc 	andi	r3,r2,65535
 8001f98:	18e0001c 	xori	r3,r3,32768
 8001f9c:	18e00004 	addi	r3,r3,-32768
 8001fa0:	e0bffd8f 	ldh	r2,-10(fp)
 8001fa4:	10c09b0e 	bge	r2,r3,8002214 <drawChar+0x2e0>
 8001fa8:	e0bffe17 	ldw	r2,-8(fp)
 8001fac:	1080018b 	ldhu	r2,6(r2)
 8001fb0:	10ffffcc 	andi	r3,r2,65535
 8001fb4:	18e0001c 	xori	r3,r3,32768
 8001fb8:	18e00004 	addi	r3,r3,-32768
 8001fbc:	e0bffd0f 	ldh	r2,-12(fp)
 8001fc0:	10c0940e 	bge	r2,r3,8002214 <drawChar+0x2e0>
 8001fc4:	e43ffd8f 	ldh	r16,-10(fp)
 8001fc8:	e13ffac3 	ldbu	r4,-21(fp)
 8001fcc:	01400184 	movi	r5,6
 8001fd0:	8005e7c0 	call	8005e7c <__mulsi3>
 8001fd4:	8085883a 	add	r2,r16,r2
 8001fd8:	10800050 	cmplti	r2,r2,1
 8001fdc:	10008d1e 	bne	r2,zero,8002214 <drawChar+0x2e0>
 8001fe0:	e0fffd0f 	ldh	r3,-12(fp)
 8001fe4:	e0bffac3 	ldbu	r2,-21(fp)
 8001fe8:	100490fa 	slli	r2,r2,3
 8001fec:	1885883a 	add	r2,r3,r2
 8001ff0:	10800048 	cmpgei	r2,r2,1
 8001ff4:	1000011e 	bne	r2,zero,8001ffc <drawChar+0xc8>
			(y >= psInst->_height) || // Clip bottom
			((x + 6 * size - 1) < 0) || // Clip left
			((y + 8 * size - 1) < 0))   // Clip top
		return;
 8001ff8:	00008606 	br	8002214 <drawChar+0x2e0>

	for (i = 0; i < 6; i++) {
 8001ffc:	e03ffa85 	stb	zero,-22(fp)
 8002000:	00008106 	br	8002208 <drawChar+0x2d4>
		uint8_t line;
		if (i == 5)
 8002004:	e0bffa87 	ldb	r2,-22(fp)
 8002008:	10800158 	cmpnei	r2,r2,5
 800200c:	1000021e 	bne	r2,zero,8002018 <drawChar+0xe4>
			line = 0x0;
 8002010:	e03ffa05 	stb	zero,-24(fp)
 8002014:	00000b06 	br	8002044 <drawChar+0x110>
		else
			line = font[(c * 5) + i];
 8002018:	e13fff03 	ldbu	r4,-4(fp)
 800201c:	01400144 	movi	r5,5
 8002020:	8005e7c0 	call	8005e7c <__mulsi3>
 8002024:	1007883a 	mov	r3,r2
 8002028:	e0bffa87 	ldb	r2,-22(fp)
 800202c:	1887883a 	add	r3,r3,r2
 8002030:	00820074 	movhi	r2,2049
 8002034:	109efb04 	addi	r2,r2,31724
 8002038:	10c5883a 	add	r2,r2,r3
 800203c:	10800003 	ldbu	r2,0(r2)
 8002040:	e0bffa05 	stb	r2,-24(fp)
		for (j = 0; j < 8; j++) {
 8002044:	e03ffa45 	stb	zero,-23(fp)
 8002048:	00006906 	br	80021f0 <drawChar+0x2bc>
			if (line & 0x1) {
 800204c:	e0bffa03 	ldbu	r2,-24(fp)
 8002050:	1080004c 	andi	r2,r2,1
 8002054:	10803fcc 	andi	r2,r2,255
 8002058:	1005003a 	cmpeq	r2,r2,zero
 800205c:	10002e1e 	bne	r2,zero,8002118 <drawChar+0x1e4>
				if (size == 1) // default size
 8002060:	e0bffac3 	ldbu	r2,-21(fp)
 8002064:	10800058 	cmpnei	r2,r2,1
 8002068:	1000101e 	bne	r2,zero,80020ac <drawChar+0x178>
					drawPixel(psInst, x + i, y + j, color);
 800206c:	e0fffa87 	ldb	r3,-22(fp)
 8002070:	e0bffd8b 	ldhu	r2,-10(fp)
 8002074:	1885883a 	add	r2,r3,r2
 8002078:	117fffcc 	andi	r5,r2,65535
 800207c:	2960001c 	xori	r5,r5,32768
 8002080:	29600004 	addi	r5,r5,-32768
 8002084:	e0fffa47 	ldb	r3,-23(fp)
 8002088:	e0bffd0b 	ldhu	r2,-12(fp)
 800208c:	1885883a 	add	r2,r3,r2
 8002090:	11bfffcc 	andi	r6,r2,65535
 8002094:	31a0001c 	xori	r6,r6,32768
 8002098:	31a00004 	addi	r6,r6,-32768
 800209c:	e13ffe17 	ldw	r4,-8(fp)
 80020a0:	e1fffc17 	ldw	r7,-16(fp)
 80020a4:	80024900 	call	8002490 <drawPixel>
 80020a8:	00004b06 	br	80021d8 <drawChar+0x2a4>
				else {  // big size
					fillRect(psInst, x + (i * size), y + (j * size), size, size, color);
 80020ac:	e13ffa87 	ldb	r4,-22(fp)
 80020b0:	e17ffac3 	ldbu	r5,-21(fp)
 80020b4:	8005e7c0 	call	8005e7c <__mulsi3>
 80020b8:	1007883a 	mov	r3,r2
 80020bc:	e0bffd8b 	ldhu	r2,-10(fp)
 80020c0:	1885883a 	add	r2,r3,r2
 80020c4:	143fffcc 	andi	r16,r2,65535
 80020c8:	8420001c 	xori	r16,r16,32768
 80020cc:	84200004 	addi	r16,r16,-32768
 80020d0:	e13ffa47 	ldb	r4,-23(fp)
 80020d4:	e17ffac3 	ldbu	r5,-21(fp)
 80020d8:	8005e7c0 	call	8005e7c <__mulsi3>
 80020dc:	1007883a 	mov	r3,r2
 80020e0:	e0bffd0b 	ldhu	r2,-12(fp)
 80020e4:	1885883a 	add	r2,r3,r2
 80020e8:	11bfffcc 	andi	r6,r2,65535
 80020ec:	31a0001c 	xori	r6,r6,32768
 80020f0:	31a00004 	addi	r6,r6,-32768
 80020f4:	e1fffac3 	ldbu	r7,-21(fp)
 80020f8:	e0bffac3 	ldbu	r2,-21(fp)
 80020fc:	d8800015 	stw	r2,0(sp)
 8002100:	e0bffc17 	ldw	r2,-16(fp)
 8002104:	d8800115 	stw	r2,4(sp)
 8002108:	e13ffe17 	ldw	r4,-8(fp)
 800210c:	800b883a 	mov	r5,r16
 8002110:	80016f80 	call	80016f8 <fillRect>
 8002114:	00003006 	br	80021d8 <drawChar+0x2a4>
				}
			} else if (bg != color) {
 8002118:	e0fffb0b 	ldhu	r3,-20(fp)
 800211c:	e0bffc17 	ldw	r2,-16(fp)
 8002120:	18802d26 	beq	r3,r2,80021d8 <drawChar+0x2a4>
				if (size == 1) // default size
 8002124:	e0bffac3 	ldbu	r2,-21(fp)
 8002128:	10800058 	cmpnei	r2,r2,1
 800212c:	1000101e 	bne	r2,zero,8002170 <drawChar+0x23c>
					drawPixel(psInst, x + i, y + j, bg);
 8002130:	e0fffa87 	ldb	r3,-22(fp)
 8002134:	e0bffd8b 	ldhu	r2,-10(fp)
 8002138:	1885883a 	add	r2,r3,r2
 800213c:	117fffcc 	andi	r5,r2,65535
 8002140:	2960001c 	xori	r5,r5,32768
 8002144:	29600004 	addi	r5,r5,-32768
 8002148:	e0fffa47 	ldb	r3,-23(fp)
 800214c:	e0bffd0b 	ldhu	r2,-12(fp)
 8002150:	1885883a 	add	r2,r3,r2
 8002154:	11bfffcc 	andi	r6,r2,65535
 8002158:	31a0001c 	xori	r6,r6,32768
 800215c:	31a00004 	addi	r6,r6,-32768
 8002160:	e1fffb0b 	ldhu	r7,-20(fp)
 8002164:	e13ffe17 	ldw	r4,-8(fp)
 8002168:	80024900 	call	8002490 <drawPixel>
 800216c:	00001a06 	br	80021d8 <drawChar+0x2a4>
				else {  // big size
					fillRect(psInst, x + i * size, y + j * size, size, size, bg);
 8002170:	e13ffa87 	ldb	r4,-22(fp)
 8002174:	e17ffac3 	ldbu	r5,-21(fp)
 8002178:	8005e7c0 	call	8005e7c <__mulsi3>
 800217c:	1007883a 	mov	r3,r2
 8002180:	e0bffd8b 	ldhu	r2,-10(fp)
 8002184:	1885883a 	add	r2,r3,r2
 8002188:	143fffcc 	andi	r16,r2,65535
 800218c:	8420001c 	xori	r16,r16,32768
 8002190:	84200004 	addi	r16,r16,-32768
 8002194:	e13ffa47 	ldb	r4,-23(fp)
 8002198:	e17ffac3 	ldbu	r5,-21(fp)
 800219c:	8005e7c0 	call	8005e7c <__mulsi3>
 80021a0:	1007883a 	mov	r3,r2
 80021a4:	e0bffd0b 	ldhu	r2,-12(fp)
 80021a8:	1885883a 	add	r2,r3,r2
 80021ac:	11bfffcc 	andi	r6,r2,65535
 80021b0:	31a0001c 	xori	r6,r6,32768
 80021b4:	31a00004 	addi	r6,r6,-32768
 80021b8:	e1fffac3 	ldbu	r7,-21(fp)
 80021bc:	e0bffac3 	ldbu	r2,-21(fp)
 80021c0:	e0fffb0b 	ldhu	r3,-20(fp)
 80021c4:	d8800015 	stw	r2,0(sp)
 80021c8:	d8c00115 	stw	r3,4(sp)
 80021cc:	e13ffe17 	ldw	r4,-8(fp)
 80021d0:	800b883a 	mov	r5,r16
 80021d4:	80016f80 	call	80016f8 <fillRect>
				}
			}
			line >>= 1;
 80021d8:	e0bffa03 	ldbu	r2,-24(fp)
 80021dc:	1004d07a 	srli	r2,r2,1
 80021e0:	e0bffa05 	stb	r2,-24(fp)
		uint8_t line;
		if (i == 5)
			line = 0x0;
		else
			line = font[(c * 5) + i];
		for (j = 0; j < 8; j++) {
 80021e4:	e0bffa43 	ldbu	r2,-23(fp)
 80021e8:	10800044 	addi	r2,r2,1
 80021ec:	e0bffa45 	stb	r2,-23(fp)
 80021f0:	e0bffa47 	ldb	r2,-23(fp)
 80021f4:	10800210 	cmplti	r2,r2,8
 80021f8:	103f941e 	bne	r2,zero,800204c <drawChar+0x118>
			(y >= psInst->_height) || // Clip bottom
			((x + 6 * size - 1) < 0) || // Clip left
			((y + 8 * size - 1) < 0))   // Clip top
		return;

	for (i = 0; i < 6; i++) {
 80021fc:	e0bffa83 	ldbu	r2,-22(fp)
 8002200:	10800044 	addi	r2,r2,1
 8002204:	e0bffa85 	stb	r2,-22(fp)
 8002208:	e0bffa87 	ldb	r2,-22(fp)
 800220c:	10800190 	cmplti	r2,r2,6
 8002210:	103f7c1e 	bne	r2,zero,8002004 <drawChar+0xd0>
				}
			}
			line >>= 1;
		}
	}
}
 8002214:	e037883a 	mov	sp,fp
 8002218:	dfc00217 	ldw	ra,8(sp)
 800221c:	df000117 	ldw	fp,4(sp)
 8002220:	dc000017 	ldw	r16,0(sp)
 8002224:	dec00304 	addi	sp,sp,12
 8002228:	f800283a 	ret

0800222c <setCursor>:

void setCursor(tAdafruit_GFX *psInst, int16_t x, int16_t y) {
 800222c:	defffc04 	addi	sp,sp,-16
 8002230:	df000315 	stw	fp,12(sp)
 8002234:	df000304 	addi	fp,sp,12
 8002238:	e13ffd15 	stw	r4,-12(fp)
 800223c:	e17ffe0d 	sth	r5,-8(fp)
 8002240:	e1bfff0d 	sth	r6,-4(fp)
	psInst->cursor_x = x;
 8002244:	e0fffd17 	ldw	r3,-12(fp)
 8002248:	e0bffe0b 	ldhu	r2,-8(fp)
 800224c:	1880020d 	sth	r2,8(r3)
	psInst->cursor_y = y;
 8002250:	e0fffd17 	ldw	r3,-12(fp)
 8002254:	e0bfff0b 	ldhu	r2,-4(fp)
 8002258:	1880028d 	sth	r2,10(r3)
}
 800225c:	e037883a 	mov	sp,fp
 8002260:	df000017 	ldw	fp,0(sp)
 8002264:	dec00104 	addi	sp,sp,4
 8002268:	f800283a 	ret

0800226c <setTextSize>:

void setTextSize(tAdafruit_GFX *psInst, uint8_t s) {
 800226c:	defffd04 	addi	sp,sp,-12
 8002270:	df000215 	stw	fp,8(sp)
 8002274:	df000204 	addi	fp,sp,8
 8002278:	e13ffe15 	stw	r4,-8(fp)
 800227c:	e17fff05 	stb	r5,-4(fp)
	psInst->textsize = (s > 0) ? s : 1;
 8002280:	e0bfff03 	ldbu	r2,-4(fp)
 8002284:	1005003a 	cmpeq	r2,r2,zero
 8002288:	1000031e 	bne	r2,zero,8002298 <setTextSize+0x2c>
 800228c:	e0bfff03 	ldbu	r2,-4(fp)
 8002290:	e0bfff45 	stb	r2,-3(fp)
 8002294:	00000206 	br	80022a0 <setTextSize+0x34>
 8002298:	00c00044 	movi	r3,1
 800229c:	e0ffff45 	stb	r3,-3(fp)
 80022a0:	e0bffe17 	ldw	r2,-8(fp)
 80022a4:	e0ffff43 	ldbu	r3,-3(fp)
 80022a8:	10c00505 	stb	r3,20(r2)
}
 80022ac:	e037883a 	mov	sp,fp
 80022b0:	df000017 	ldw	fp,0(sp)
 80022b4:	dec00104 	addi	sp,sp,4
 80022b8:	f800283a 	ret

080022bc <setTextColor>:
//	// For 'transparent' background, we'll set the bg
//	// to the same as fg instead of using a flag
//	psInst->textcolor = psInst->textbgcolor = c;
//}

void setTextColor(tAdafruit_GFX *psInst, uint32_t c, uint32_t b) {
 80022bc:	defffc04 	addi	sp,sp,-16
 80022c0:	df000315 	stw	fp,12(sp)
 80022c4:	df000304 	addi	fp,sp,12
 80022c8:	e13ffd15 	stw	r4,-12(fp)
 80022cc:	e17ffe15 	stw	r5,-8(fp)
 80022d0:	e1bfff15 	stw	r6,-4(fp)
	psInst->textcolor = c;
 80022d4:	e0fffd17 	ldw	r3,-12(fp)
 80022d8:	e0bffe17 	ldw	r2,-8(fp)
 80022dc:	18800315 	stw	r2,12(r3)
	psInst->textbgcolor = b;
 80022e0:	e0fffd17 	ldw	r3,-12(fp)
 80022e4:	e0bfff17 	ldw	r2,-4(fp)
 80022e8:	18800415 	stw	r2,16(r3)
}
 80022ec:	e037883a 	mov	sp,fp
 80022f0:	df000017 	ldw	fp,0(sp)
 80022f4:	dec00104 	addi	sp,sp,4
 80022f8:	f800283a 	ret

080022fc <setTextWrap>:

void setTextWrap(tAdafruit_GFX *psInst, bool w) {
 80022fc:	defffd04 	addi	sp,sp,-12
 8002300:	df000215 	stw	fp,8(sp)
 8002304:	df000204 	addi	fp,sp,8
 8002308:	e13ffe15 	stw	r4,-8(fp)
 800230c:	e17fff05 	stb	r5,-4(fp)
	psInst->wrap = w;
 8002310:	e0fffe17 	ldw	r3,-8(fp)
 8002314:	e0bfff03 	ldbu	r2,-4(fp)
 8002318:	18800705 	stb	r2,28(r3)
}
 800231c:	e037883a 	mov	sp,fp
 8002320:	df000017 	ldw	fp,0(sp)
 8002324:	dec00104 	addi	sp,sp,4
 8002328:	f800283a 	ret

0800232c <getRotation>:

uint8_t getRotation(tAdafruit_GFX *psInst) {
 800232c:	defffe04 	addi	sp,sp,-8
 8002330:	df000115 	stw	fp,4(sp)
 8002334:	df000104 	addi	fp,sp,4
 8002338:	e13fff15 	stw	r4,-4(fp)
	return psInst->rotation;
 800233c:	e0bfff17 	ldw	r2,-4(fp)
 8002340:	10800543 	ldbu	r2,21(r2)
 8002344:	10803fcc 	andi	r2,r2,255
}
 8002348:	e037883a 	mov	sp,fp
 800234c:	df000017 	ldw	fp,0(sp)
 8002350:	dec00104 	addi	sp,sp,4
 8002354:	f800283a 	ret

08002358 <setRotation>:

void setRotation(tAdafruit_GFX *psInst, uint8_t x) {
 8002358:	defffc04 	addi	sp,sp,-16
 800235c:	df000315 	stw	fp,12(sp)
 8002360:	df000304 	addi	fp,sp,12
 8002364:	e13ffd15 	stw	r4,-12(fp)
 8002368:	e17ffe05 	stb	r5,-8(fp)
	psInst->rotation = (x & 3);
 800236c:	e0bffe03 	ldbu	r2,-8(fp)
 8002370:	108000cc 	andi	r2,r2,3
 8002374:	1007883a 	mov	r3,r2
 8002378:	e0bffd17 	ldw	r2,-12(fp)
 800237c:	10c00545 	stb	r3,21(r2)

	switch (psInst->rotation) {
 8002380:	e0bffd17 	ldw	r2,-12(fp)
 8002384:	10800543 	ldbu	r2,21(r2)
 8002388:	10803fcc 	andi	r2,r2,255
 800238c:	e0bfff15 	stw	r2,-4(fp)
 8002390:	e0ffff17 	ldw	r3,-4(fp)
 8002394:	18800060 	cmpeqi	r2,r3,1
 8002398:	1000171e 	bne	r2,zero,80023f8 <setRotation+0xa0>
 800239c:	e0ffff17 	ldw	r3,-4(fp)
 80023a0:	18800088 	cmpgei	r2,r3,2
 80023a4:	1000041e 	bne	r2,zero,80023b8 <setRotation+0x60>
 80023a8:	e0ffff17 	ldw	r3,-4(fp)
 80023ac:	1805003a 	cmpeq	r2,r3,zero
 80023b0:	1000081e 	bne	r2,zero,80023d4 <setRotation+0x7c>
 80023b4:	00001806 	br	8002418 <setRotation+0xc0>
 80023b8:	e0ffff17 	ldw	r3,-4(fp)
 80023bc:	188000a0 	cmpeqi	r2,r3,2
 80023c0:	1000041e 	bne	r2,zero,80023d4 <setRotation+0x7c>
 80023c4:	e0ffff17 	ldw	r3,-4(fp)
 80023c8:	188000e0 	cmpeqi	r2,r3,3
 80023cc:	10000a1e 	bne	r2,zero,80023f8 <setRotation+0xa0>
 80023d0:	00001106 	br	8002418 <setRotation+0xc0>
	case 0:
	case 2:
		psInst->_width = psInst->WIDTH;
 80023d4:	e0bffd17 	ldw	r2,-12(fp)
 80023d8:	10c0000b 	ldhu	r3,0(r2)
 80023dc:	e0bffd17 	ldw	r2,-12(fp)
 80023e0:	10c0010d 	sth	r3,4(r2)
		psInst->_height = psInst->HEIGHT;
 80023e4:	e0bffd17 	ldw	r2,-12(fp)
 80023e8:	10c0008b 	ldhu	r3,2(r2)
 80023ec:	e0bffd17 	ldw	r2,-12(fp)
 80023f0:	10c0018d 	sth	r3,6(r2)

		break;
 80023f4:	00000806 	br	8002418 <setRotation+0xc0>
	case 1:
	case 3:
		psInst->_width = psInst->HEIGHT;
 80023f8:	e0bffd17 	ldw	r2,-12(fp)
 80023fc:	10c0008b 	ldhu	r3,2(r2)
 8002400:	e0bffd17 	ldw	r2,-12(fp)
 8002404:	10c0010d 	sth	r3,4(r2)
		psInst->_height = psInst->WIDTH;
 8002408:	e0bffd17 	ldw	r2,-12(fp)
 800240c:	10c0000b 	ldhu	r3,0(r2)
 8002410:	e0bffd17 	ldw	r2,-12(fp)
 8002414:	10c0018d 	sth	r3,6(r2)
		break;
	}
}
 8002418:	e037883a 	mov	sp,fp
 800241c:	df000017 	ldw	fp,0(sp)
 8002420:	dec00104 	addi	sp,sp,4
 8002424:	f800283a 	ret

08002428 <width>:

// Return the size of the display (per current rotation)
int16_t width(tAdafruit_GFX *psInst) {
 8002428:	defffe04 	addi	sp,sp,-8
 800242c:	df000115 	stw	fp,4(sp)
 8002430:	df000104 	addi	fp,sp,4
 8002434:	e13fff15 	stw	r4,-4(fp)
	return psInst->_width;
 8002438:	e0bfff17 	ldw	r2,-4(fp)
 800243c:	1080010b 	ldhu	r2,4(r2)
 8002440:	10bfffcc 	andi	r2,r2,65535
 8002444:	10a0001c 	xori	r2,r2,32768
 8002448:	10a00004 	addi	r2,r2,-32768
}
 800244c:	e037883a 	mov	sp,fp
 8002450:	df000017 	ldw	fp,0(sp)
 8002454:	dec00104 	addi	sp,sp,4
 8002458:	f800283a 	ret

0800245c <height>:

int16_t height(tAdafruit_GFX *psInst) {
 800245c:	defffe04 	addi	sp,sp,-8
 8002460:	df000115 	stw	fp,4(sp)
 8002464:	df000104 	addi	fp,sp,4
 8002468:	e13fff15 	stw	r4,-4(fp)
	return psInst->_height;
 800246c:	e0bfff17 	ldw	r2,-4(fp)
 8002470:	1080018b 	ldhu	r2,6(r2)
 8002474:	10bfffcc 	andi	r2,r2,65535
 8002478:	10a0001c 	xori	r2,r2,32768
 800247c:	10a00004 	addi	r2,r2,-32768
}
 8002480:	e037883a 	mov	sp,fp
 8002484:	df000017 	ldw	fp,0(sp)
 8002488:	dec00104 	addi	sp,sp,4
 800248c:	f800283a 	ret

08002490 <drawPixel>:
#include <stdio.h>
#include "NiosOledDrv.h"


/* drawPixel on screen */
void drawPixel(tAdafruit_GFX *psInst, int16_t x, int16_t y,	uint32_t color){
 8002490:	defff804 	addi	sp,sp,-32
 8002494:	dfc00715 	stw	ra,28(sp)
 8002498:	df000615 	stw	fp,24(sp)
 800249c:	dc000515 	stw	r16,20(sp)
 80024a0:	df000504 	addi	fp,sp,20
 80024a4:	e13ffc15 	stw	r4,-16(fp)
 80024a8:	e1ffff15 	stw	r7,-4(fp)
 80024ac:	e17ffd0d 	sth	r5,-12(fp)
 80024b0:	e1bffe0d 	sth	r6,-8(fp)
	int16_t tmp;
  if(psInst->rotation == 1){/*Rotate 90 degrees clockwise */
 80024b4:	e0bffc17 	ldw	r2,-16(fp)
 80024b8:	10800543 	ldbu	r2,21(r2)
 80024bc:	10803fcc 	andi	r2,r2,255
 80024c0:	10800058 	cmpnei	r2,r2,1
 80024c4:	10000c1e 	bne	r2,zero,80024f8 <drawPixel+0x68>
	  tmp = x;
 80024c8:	e0bffd0b 	ldhu	r2,-12(fp)
 80024cc:	e0bffb0d 	sth	r2,-20(fp)
	  x=y;
 80024d0:	e0bffe0b 	ldhu	r2,-8(fp)
 80024d4:	e0bffd0d 	sth	r2,-12(fp)
	  y=tmp;
 80024d8:	e0bffb0b 	ldhu	r2,-20(fp)
 80024dc:	e0bffe0d 	sth	r2,-8(fp)
	  y = psInst->_height - y;
 80024e0:	e0bffc17 	ldw	r2,-16(fp)
 80024e4:	1080018b 	ldhu	r2,6(r2)
 80024e8:	1007883a 	mov	r3,r2
 80024ec:	e0bffe0b 	ldhu	r2,-8(fp)
 80024f0:	1885c83a 	sub	r2,r3,r2
 80024f4:	e0bffe0d 	sth	r2,-8(fp)
  }

	// Clip first...
  if ((x >= 0) && (x < psInst->_width) && (y >= 0) && (y < psInst->_height)) {
 80024f8:	e0bffd0f 	ldh	r2,-12(fp)
 80024fc:	1004803a 	cmplt	r2,r2,zero
 8002500:	1000231e 	bne	r2,zero,8002590 <drawPixel+0x100>
 8002504:	e0bffc17 	ldw	r2,-16(fp)
 8002508:	1080010b 	ldhu	r2,4(r2)
 800250c:	10ffffcc 	andi	r3,r2,65535
 8002510:	18e0001c 	xori	r3,r3,32768
 8002514:	18e00004 	addi	r3,r3,-32768
 8002518:	e0bffd0f 	ldh	r2,-12(fp)
 800251c:	10c01c0e 	bge	r2,r3,8002590 <drawPixel+0x100>
 8002520:	e0bffe0f 	ldh	r2,-8(fp)
 8002524:	1004803a 	cmplt	r2,r2,zero
 8002528:	1000191e 	bne	r2,zero,8002590 <drawPixel+0x100>
 800252c:	e0bffc17 	ldw	r2,-16(fp)
 8002530:	1080018b 	ldhu	r2,6(r2)
 8002534:	10ffffcc 	andi	r3,r2,65535
 8002538:	18e0001c 	xori	r3,r3,32768
 800253c:	18e00004 	addi	r3,r3,-32768
 8002540:	e0bffe0f 	ldh	r2,-8(fp)
 8002544:	10c0120e 	bge	r2,r3,8002590 <drawPixel+0x100>
#ifdef LTM_MM_IF_BASE
	// THEN set up transaction (if needed) and draw...
    psInst->buffer[ y*psInst->WIDTH + x] = color;
 8002548:	e0bffc17 	ldw	r2,-16(fp)
 800254c:	14000617 	ldw	r16,24(r2)
 8002550:	e13ffe0f 	ldh	r4,-8(fp)
 8002554:	e0bffc17 	ldw	r2,-16(fp)
 8002558:	1080000b 	ldhu	r2,0(r2)
 800255c:	117fffcc 	andi	r5,r2,65535
 8002560:	2960001c 	xori	r5,r5,32768
 8002564:	29600004 	addi	r5,r5,-32768
 8002568:	8005e7c0 	call	8005e7c <__mulsi3>
 800256c:	1007883a 	mov	r3,r2
 8002570:	e0bffd0f 	ldh	r2,-12(fp)
 8002574:	1885883a 	add	r2,r3,r2
 8002578:	1085883a 	add	r2,r2,r2
 800257c:	1085883a 	add	r2,r2,r2
 8002580:	8087883a 	add	r3,r16,r2
 8002584:	e0bfff17 	ldw	r2,-4(fp)
 8002588:	18800015 	stw	r2,0(r3)
	  y=tmp;
	  y = psInst->_height - y;
  }

	// Clip first...
  if ((x >= 0) && (x < psInst->_width) && (y >= 0) && (y < psInst->_height)) {
 800258c:	00000306 	br	800259c <drawPixel+0x10c>
	// THEN set up transaction (if needed) and draw...
    psInst->buffer[ y*psInst->WIDTH + x] = color;
  }
#endif
  else{
	  printf("Picture exceeds screen borders.\n");
 8002590:	010200b4 	movhi	r4,2050
 8002594:	21203a04 	addi	r4,r4,-32536
 8002598:	80088880 	call	8008888 <puts>
  }
}
 800259c:	e037883a 	mov	sp,fp
 80025a0:	dfc00217 	ldw	ra,8(sp)
 80025a4:	df000117 	ldw	fp,4(sp)
 80025a8:	dc000017 	ldw	r16,0(sp)
 80025ac:	dec00304 	addi	sp,sp,12
 80025b0:	f800283a 	ret

080025b4 <OLED_Set_Pos>:

void OLED_Set_Pos(unsigned char x, unsigned char y)
/* x is width pixel */
/* y is page number */
{
 80025b4:	defffd04 	addi	sp,sp,-12
 80025b8:	df000215 	stw	fp,8(sp)
 80025bc:	df000204 	addi	fp,sp,8
 80025c0:	e13ffe05 	stb	r4,-8(fp)
 80025c4:	e17fff05 	stb	r5,-4(fp)

}
 80025c8:	e037883a 	mov	sp,fp
 80025cc:	df000017 	ldw	fp,0(sp)
 80025d0:	dec00104 	addi	sp,sp,4
 80025d4:	f800283a 	ret

080025d8 <OLED_Display_On>:


/* Open OLED Display */
void OLED_Display_On(void)
{
 80025d8:	deffff04 	addi	sp,sp,-4
 80025dc:	df000015 	stw	fp,0(sp)
 80025e0:	d839883a 	mov	fp,sp

}
 80025e4:	e037883a 	mov	sp,fp
 80025e8:	df000017 	ldw	fp,0(sp)
 80025ec:	dec00104 	addi	sp,sp,4
 80025f0:	f800283a 	ret

080025f4 <OLED_Display_Off>:
/* close OLED Display */
void OLED_Display_Off(void)
{
 80025f4:	deffff04 	addi	sp,sp,-4
 80025f8:	df000015 	stw	fp,0(sp)
 80025fc:	d839883a 	mov	fp,sp

}
 8002600:	e037883a 	mov	sp,fp
 8002604:	df000017 	ldw	fp,0(sp)
 8002608:	dec00104 	addi	sp,sp,4
 800260c:	f800283a 	ret

08002610 <OLED_Clear>:
/* M, M,O!MSIG@!! */
void OLED_Clear(tAdafruit_GFX *psInst)
{
 8002610:	defffb04 	addi	sp,sp,-20
 8002614:	dfc00415 	stw	ra,16(sp)
 8002618:	df000315 	stw	fp,12(sp)
 800261c:	dc000215 	stw	r16,8(sp)
 8002620:	df000204 	addi	fp,sp,8
 8002624:	e13fff15 	stw	r4,-4(fp)
  unsigned int i;
  memset(psInst->buffer, 0, psInst->HEIGHT*psInst->WIDTH*4);
 8002628:	e0bfff17 	ldw	r2,-4(fp)
 800262c:	14000617 	ldw	r16,24(r2)
 8002630:	e0bfff17 	ldw	r2,-4(fp)
 8002634:	1080008b 	ldhu	r2,2(r2)
 8002638:	113fffcc 	andi	r4,r2,65535
 800263c:	2120001c 	xori	r4,r4,32768
 8002640:	21200004 	addi	r4,r4,-32768
 8002644:	e0bfff17 	ldw	r2,-4(fp)
 8002648:	1080000b 	ldhu	r2,0(r2)
 800264c:	117fffcc 	andi	r5,r2,65535
 8002650:	2960001c 	xori	r5,r5,32768
 8002654:	29600004 	addi	r5,r5,-32768
 8002658:	8005e7c0 	call	8005e7c <__mulsi3>
 800265c:	1085883a 	add	r2,r2,r2
 8002660:	1085883a 	add	r2,r2,r2
 8002664:	8009883a 	mov	r4,r16
 8002668:	100d883a 	mov	r6,r2
 800266c:	000b883a 	mov	r5,zero
 8002670:	80085bc0 	call	80085bc <memset>
//  for(i=0; i < psInst->HEIGHT*psInst->WIDTH; i++)
//  {
//	  psInst->buffer[i]=0;
//  } // s
  psInst->cursor_x=0;
 8002674:	e0bfff17 	ldw	r2,-4(fp)
 8002678:	1000020d 	sth	zero,8(r2)
  psInst->cursor_y=0;
 800267c:	e0bfff17 	ldw	r2,-4(fp)
 8002680:	1000028d 	sth	zero,10(r2)
}
 8002684:	e037883a 	mov	sp,fp
 8002688:	dfc00217 	ldw	ra,8(sp)
 800268c:	df000117 	ldw	fp,4(sp)
 8002690:	dc000017 	ldw	r16,0(sp)
 8002694:	dec00304 	addi	sp,sp,12
 8002698:	f800283a 	ret

0800269c <is_fifo_full>:
int stack_top = -1;
int LTMDisp[800 * 480]; // LTM display buffer
int touch_irq = 0;

// Check if FIFO is full
int is_fifo_full() {
 800269c:	defffe04 	addi	sp,sp,-8
 80026a0:	df000115 	stw	fp,4(sp)
 80026a4:	df000104 	addi	fp,sp,4
    return ((fifo_head + 1) % FIFO_SIZE) == fifo_tail;
 80026a8:	d0a01e17 	ldw	r2,-32648(gp)
 80026ac:	10c00044 	addi	r3,r2,1
 80026b0:	00a00034 	movhi	r2,32768
 80026b4:	108007c4 	addi	r2,r2,31
 80026b8:	1886703a 	and	r3,r3,r2
 80026bc:	e0ffff15 	stw	r3,-4(fp)
 80026c0:	e0ffff17 	ldw	r3,-4(fp)
 80026c4:	1804403a 	cmpge	r2,r3,zero
 80026c8:	10000a1e 	bne	r2,zero,80026f4 <is_fifo_full+0x58>
 80026cc:	e0bfff17 	ldw	r2,-4(fp)
 80026d0:	10bfffc4 	addi	r2,r2,-1
 80026d4:	e0bfff15 	stw	r2,-4(fp)
 80026d8:	00bff804 	movi	r2,-32
 80026dc:	e0ffff17 	ldw	r3,-4(fp)
 80026e0:	1886b03a 	or	r3,r3,r2
 80026e4:	e0ffff15 	stw	r3,-4(fp)
 80026e8:	e0bfff17 	ldw	r2,-4(fp)
 80026ec:	10800044 	addi	r2,r2,1
 80026f0:	e0bfff15 	stw	r2,-4(fp)
 80026f4:	e0ffff17 	ldw	r3,-4(fp)
 80026f8:	d0a01f17 	ldw	r2,-32644(gp)
 80026fc:	1885003a 	cmpeq	r2,r3,r2
}
 8002700:	e037883a 	mov	sp,fp
 8002704:	df000017 	ldw	fp,0(sp)
 8002708:	dec00104 	addi	sp,sp,4
 800270c:	f800283a 	ret

08002710 <is_fifo_empty>:

// Check if FIFO is empty
int is_fifo_empty() {
 8002710:	deffff04 	addi	sp,sp,-4
 8002714:	df000015 	stw	fp,0(sp)
 8002718:	d839883a 	mov	fp,sp
    return fifo_head == fifo_tail;
 800271c:	d0e01e17 	ldw	r3,-32648(gp)
 8002720:	d0a01f17 	ldw	r2,-32644(gp)
 8002724:	1885003a 	cmpeq	r2,r3,r2
}
 8002728:	e037883a 	mov	sp,fp
 800272c:	df000017 	ldw	fp,0(sp)
 8002730:	dec00104 	addi	sp,sp,4
 8002734:	f800283a 	ret

08002738 <is_stack_full>:

// Check if stack is full
int is_stack_full() {
 8002738:	deffff04 	addi	sp,sp,-4
 800273c:	df000015 	stw	fp,0(sp)
 8002740:	d839883a 	mov	fp,sp
    return stack_top >= STACK_SIZE - 1;
 8002744:	d0a00017 	ldw	r2,-32768(gp)
 8002748:	10807fc8 	cmpgei	r2,r2,511
}
 800274c:	e037883a 	mov	sp,fp
 8002750:	df000017 	ldw	fp,0(sp)
 8002754:	dec00104 	addi	sp,sp,4
 8002758:	f800283a 	ret

0800275c <is_stack_empty>:

// Check if stack is empty
int is_stack_empty() {
 800275c:	deffff04 	addi	sp,sp,-4
 8002760:	df000015 	stw	fp,0(sp)
 8002764:	d839883a 	mov	fp,sp
    return stack_top < 0;
 8002768:	d0a00017 	ldw	r2,-32768(gp)
 800276c:	1004d7fa 	srli	r2,r2,31
}
 8002770:	e037883a 	mov	sp,fp
 8002774:	df000017 	ldw	fp,0(sp)
 8002778:	dec00104 	addi	sp,sp,4
 800277c:	f800283a 	ret

08002780 <fifo_push>:

// Push data into FIFO
void fifo_push(int x, int y) {
 8002780:	defffb04 	addi	sp,sp,-20
 8002784:	dfc00415 	stw	ra,16(sp)
 8002788:	df000315 	stw	fp,12(sp)
 800278c:	df000304 	addi	fp,sp,12
 8002790:	e13ffd15 	stw	r4,-12(fp)
 8002794:	e17ffe15 	stw	r5,-8(fp)
    if (!is_fifo_full()) {
 8002798:	800269c0 	call	800269c <is_fifo_full>
 800279c:	1004c03a 	cmpne	r2,r2,zero
 80027a0:	1000251e 	bne	r2,zero,8002838 <fifo_push+0xb8>
        fifo[fifo_head].x = x;
 80027a4:	d0a01e17 	ldw	r2,-32648(gp)
 80027a8:	00c20674 	movhi	r3,2073
 80027ac:	18caf204 	addi	r3,r3,11208
 80027b0:	100490fa 	slli	r2,r2,3
 80027b4:	10c7883a 	add	r3,r2,r3
 80027b8:	e0bffd17 	ldw	r2,-12(fp)
 80027bc:	18800015 	stw	r2,0(r3)
        fifo[fifo_head].y = y;
 80027c0:	d0a01e17 	ldw	r2,-32648(gp)
 80027c4:	00c20674 	movhi	r3,2073
 80027c8:	18caf204 	addi	r3,r3,11208
 80027cc:	100490fa 	slli	r2,r2,3
 80027d0:	10c5883a 	add	r2,r2,r3
 80027d4:	10c00104 	addi	r3,r2,4
 80027d8:	e0bffe17 	ldw	r2,-8(fp)
 80027dc:	18800015 	stw	r2,0(r3)
        fifo_head = (fifo_head + 1) % FIFO_SIZE;
 80027e0:	d0a01e17 	ldw	r2,-32648(gp)
 80027e4:	10c00044 	addi	r3,r2,1
 80027e8:	00a00034 	movhi	r2,32768
 80027ec:	108007c4 	addi	r2,r2,31
 80027f0:	1886703a 	and	r3,r3,r2
 80027f4:	e0ffff15 	stw	r3,-4(fp)
 80027f8:	e0ffff17 	ldw	r3,-4(fp)
 80027fc:	1804403a 	cmpge	r2,r3,zero
 8002800:	10000a1e 	bne	r2,zero,800282c <fifo_push+0xac>
 8002804:	e0bfff17 	ldw	r2,-4(fp)
 8002808:	10bfffc4 	addi	r2,r2,-1
 800280c:	e0bfff15 	stw	r2,-4(fp)
 8002810:	00bff804 	movi	r2,-32
 8002814:	e0ffff17 	ldw	r3,-4(fp)
 8002818:	1886b03a 	or	r3,r3,r2
 800281c:	e0ffff15 	stw	r3,-4(fp)
 8002820:	e0bfff17 	ldw	r2,-4(fp)
 8002824:	10800044 	addi	r2,r2,1
 8002828:	e0bfff15 	stw	r2,-4(fp)
 800282c:	e0bfff17 	ldw	r2,-4(fp)
 8002830:	d0a01e15 	stw	r2,-32648(gp)
 8002834:	00000306 	br	8002844 <fifo_push+0xc4>
    } else {
        printf("FIFO Buffer Full!\n");
 8002838:	010200b4 	movhi	r4,2050
 800283c:	21204704 	addi	r4,r4,-32484
 8002840:	80088880 	call	8008888 <puts>
    }
}
 8002844:	e037883a 	mov	sp,fp
 8002848:	dfc00117 	ldw	ra,4(sp)
 800284c:	df000017 	ldw	fp,0(sp)
 8002850:	dec00204 	addi	sp,sp,8
 8002854:	f800283a 	ret

08002858 <fifo_pop>:

// Pop data from FIFO
TouchPoint fifo_pop() {
 8002858:	defffb04 	addi	sp,sp,-20
 800285c:	dfc00415 	stw	ra,16(sp)
 8002860:	df000315 	stw	fp,12(sp)
 8002864:	df000304 	addi	fp,sp,12
    TouchPoint point = {0, 0};
 8002868:	e03ffd15 	stw	zero,-12(fp)
 800286c:	e03ffe15 	stw	zero,-8(fp)
    if (!is_fifo_empty()) {
 8002870:	80027100 	call	8002710 <is_fifo_empty>
 8002874:	1004c03a 	cmpne	r2,r2,zero
 8002878:	10001e1e 	bne	r2,zero,80028f4 <fifo_pop+0x9c>
        point = fifo[fifo_tail];
 800287c:	d0a01f17 	ldw	r2,-32644(gp)
 8002880:	00c20674 	movhi	r3,2073
 8002884:	18caf204 	addi	r3,r3,11208
 8002888:	100490fa 	slli	r2,r2,3
 800288c:	10c9883a 	add	r4,r2,r3
 8002890:	20800017 	ldw	r2,0(r4)
 8002894:	20c00117 	ldw	r3,4(r4)
 8002898:	e0bffd15 	stw	r2,-12(fp)
 800289c:	e0fffe15 	stw	r3,-8(fp)
        fifo_tail = (fifo_tail + 1) % FIFO_SIZE;
 80028a0:	d0a01f17 	ldw	r2,-32644(gp)
 80028a4:	10c00044 	addi	r3,r2,1
 80028a8:	00a00034 	movhi	r2,32768
 80028ac:	108007c4 	addi	r2,r2,31
 80028b0:	1886703a 	and	r3,r3,r2
 80028b4:	e0ffff15 	stw	r3,-4(fp)
 80028b8:	e0ffff17 	ldw	r3,-4(fp)
 80028bc:	1804403a 	cmpge	r2,r3,zero
 80028c0:	10000a1e 	bne	r2,zero,80028ec <fifo_pop+0x94>
 80028c4:	e0bfff17 	ldw	r2,-4(fp)
 80028c8:	10bfffc4 	addi	r2,r2,-1
 80028cc:	e0bfff15 	stw	r2,-4(fp)
 80028d0:	00bff804 	movi	r2,-32
 80028d4:	e0ffff17 	ldw	r3,-4(fp)
 80028d8:	1886b03a 	or	r3,r3,r2
 80028dc:	e0ffff15 	stw	r3,-4(fp)
 80028e0:	e0bfff17 	ldw	r2,-4(fp)
 80028e4:	10800044 	addi	r2,r2,1
 80028e8:	e0bfff15 	stw	r2,-4(fp)
 80028ec:	e0bfff17 	ldw	r2,-4(fp)
 80028f0:	d0a01f15 	stw	r2,-32644(gp)
    }
    return point;
 80028f4:	e17ffd17 	ldw	r5,-12(fp)
 80028f8:	e1bffe17 	ldw	r6,-8(fp)
 80028fc:	2807883a 	mov	r3,r5
 8002900:	3009883a 	mov	r4,r6
}
 8002904:	1805883a 	mov	r2,r3
 8002908:	2007883a 	mov	r3,r4
 800290c:	e037883a 	mov	sp,fp
 8002910:	dfc00117 	ldw	ra,4(sp)
 8002914:	df000017 	ldw	fp,0(sp)
 8002918:	dec00204 	addi	sp,sp,8
 800291c:	f800283a 	ret

08002920 <stack_push>:

// Push data into stack
void stack_push(int x, int y) {
 8002920:	defffc04 	addi	sp,sp,-16
 8002924:	dfc00315 	stw	ra,12(sp)
 8002928:	df000215 	stw	fp,8(sp)
 800292c:	df000204 	addi	fp,sp,8
 8002930:	e13ffe15 	stw	r4,-8(fp)
 8002934:	e17fff15 	stw	r5,-4(fp)
    if (!is_stack_full()) {
 8002938:	80027380 	call	8002738 <is_stack_full>
 800293c:	1004c03a 	cmpne	r2,r2,zero
 8002940:	1000131e 	bne	r2,zero,8002990 <stack_push+0x70>
        stack[++stack_top].x = x;
 8002944:	d0a00017 	ldw	r2,-32768(gp)
 8002948:	10800044 	addi	r2,r2,1
 800294c:	d0a00015 	stw	r2,-32768(gp)
 8002950:	d0a00017 	ldw	r2,-32768(gp)
 8002954:	00c20674 	movhi	r3,2073
 8002958:	18c6f204 	addi	r3,r3,7112
 800295c:	100490fa 	slli	r2,r2,3
 8002960:	10c7883a 	add	r3,r2,r3
 8002964:	e0bffe17 	ldw	r2,-8(fp)
 8002968:	18800015 	stw	r2,0(r3)
        stack[stack_top].y = y;
 800296c:	d0a00017 	ldw	r2,-32768(gp)
 8002970:	00c20674 	movhi	r3,2073
 8002974:	18c6f204 	addi	r3,r3,7112
 8002978:	100490fa 	slli	r2,r2,3
 800297c:	10c5883a 	add	r2,r2,r3
 8002980:	10c00104 	addi	r3,r2,4
 8002984:	e0bfff17 	ldw	r2,-4(fp)
 8002988:	18800015 	stw	r2,0(r3)
 800298c:	00000306 	br	800299c <stack_push+0x7c>
    } else {
        printf("Stack Full!\n");
 8002990:	010200b4 	movhi	r4,2050
 8002994:	21204c04 	addi	r4,r4,-32464
 8002998:	80088880 	call	8008888 <puts>
    }
}
 800299c:	e037883a 	mov	sp,fp
 80029a0:	dfc00117 	ldw	ra,4(sp)
 80029a4:	df000017 	ldw	fp,0(sp)
 80029a8:	dec00204 	addi	sp,sp,8
 80029ac:	f800283a 	ret

080029b0 <stack_pop>:

// Pop data from stack
TouchPoint stack_pop() {
 80029b0:	defffc04 	addi	sp,sp,-16
 80029b4:	dfc00315 	stw	ra,12(sp)
 80029b8:	df000215 	stw	fp,8(sp)
 80029bc:	df000204 	addi	fp,sp,8
    TouchPoint point = {0, 0};
 80029c0:	e03ffe15 	stw	zero,-8(fp)
 80029c4:	e03fff15 	stw	zero,-4(fp)
    if (!is_stack_empty()) {
 80029c8:	800275c0 	call	800275c <is_stack_empty>
 80029cc:	1004c03a 	cmpne	r2,r2,zero
 80029d0:	10000b1e 	bne	r2,zero,8002a00 <stack_pop+0x50>
        point = stack[stack_top--];
 80029d4:	d1600017 	ldw	r5,-32768(gp)
 80029d8:	00c20674 	movhi	r3,2073
 80029dc:	18c6f204 	addi	r3,r3,7112
 80029e0:	280490fa 	slli	r2,r5,3
 80029e4:	10c9883a 	add	r4,r2,r3
 80029e8:	20800017 	ldw	r2,0(r4)
 80029ec:	20c00117 	ldw	r3,4(r4)
 80029f0:	e0bffe15 	stw	r2,-8(fp)
 80029f4:	e0ffff15 	stw	r3,-4(fp)
 80029f8:	28bfffc4 	addi	r2,r5,-1
 80029fc:	d0a00015 	stw	r2,-32768(gp)
    }
    return point;
 8002a00:	e17ffe17 	ldw	r5,-8(fp)
 8002a04:	e1bfff17 	ldw	r6,-4(fp)
 8002a08:	2807883a 	mov	r3,r5
 8002a0c:	3009883a 	mov	r4,r6
}
 8002a10:	1805883a 	mov	r2,r3
 8002a14:	2007883a 	mov	r3,r4
 8002a18:	e037883a 	mov	sp,fp
 8002a1c:	dfc00117 	ldw	ra,4(sp)
 8002a20:	df000017 	ldw	fp,0(sp)
 8002a24:	dec00204 	addi	sp,sp,8
 8002a28:	f800283a 	ret

08002a2c <fifo_clear>:

// Clear FIFO
void fifo_clear() {
 8002a2c:	deffff04 	addi	sp,sp,-4
 8002a30:	df000015 	stw	fp,0(sp)
 8002a34:	d839883a 	mov	fp,sp
    fifo_head = 0;
 8002a38:	d0201e15 	stw	zero,-32648(gp)
    fifo_tail = 0;
 8002a3c:	d0201f15 	stw	zero,-32644(gp)
}
 8002a40:	e037883a 	mov	sp,fp
 8002a44:	df000017 	ldw	fp,0(sp)
 8002a48:	dec00104 	addi	sp,sp,4
 8002a4c:	f800283a 	ret

08002a50 <stack_clear>:

// Clear stack
void stack_clear() {
 8002a50:	deffff04 	addi	sp,sp,-4
 8002a54:	df000015 	stw	fp,0(sp)
 8002a58:	d839883a 	mov	fp,sp
    stack_top = -1;
 8002a5c:	00bfffc4 	movi	r2,-1
 8002a60:	d0a00015 	stw	r2,-32768(gp)
}
 8002a64:	e037883a 	mov	sp,fp
 8002a68:	df000017 	ldw	fp,0(sp)
 8002a6c:	dec00104 	addi	sp,sp,4
 8002a70:	f800283a 	ret

08002a74 <touch_isr>:

// Interrupt service routine
void touch_isr() {
 8002a74:	defffa04 	addi	sp,sp,-24
 8002a78:	dfc00515 	stw	ra,20(sp)
 8002a7c:	df000415 	stw	fp,16(sp)
 8002a80:	df000404 	addi	fp,sp,16
    IOWR(TOUCHIRQ_BASE, 3, 0); // Clear edgecapture register bits
 8002a84:	00802034 	movhi	r2,128
 8002a88:	10841b04 	addi	r2,r2,4204
 8002a8c:	10000035 	stwio	zero,0(r2)
    int x = IORD(TOUCHY_BASE, 0);
 8002a90:	00802034 	movhi	r2,128
 8002a94:	10841c04 	addi	r2,r2,4208
 8002a98:	10800037 	ldwio	r2,0(r2)
 8002a9c:	e0bffd15 	stw	r2,-12(fp)
    int y = 4096 - IORD(TOUCHX_BASE, 0);
 8002aa0:	00802034 	movhi	r2,128
 8002aa4:	10842004 	addi	r2,r2,4224
 8002aa8:	10c00037 	ldwio	r3,0(r2)
 8002aac:	00840004 	movi	r2,4096
 8002ab0:	10c5c83a 	sub	r2,r2,r3
 8002ab4:	e0bffc15 	stw	r2,-16(fp)
    x = (x * 800) / 4096;
 8002ab8:	e13ffd17 	ldw	r4,-12(fp)
 8002abc:	0140c804 	movi	r5,800
 8002ac0:	8005e7c0 	call	8005e7c <__mulsi3>
 8002ac4:	e0bffe15 	stw	r2,-8(fp)
 8002ac8:	e0fffe17 	ldw	r3,-8(fp)
 8002acc:	1804403a 	cmpge	r2,r3,zero
 8002ad0:	1000031e 	bne	r2,zero,8002ae0 <touch_isr+0x6c>
 8002ad4:	e0bffe17 	ldw	r2,-8(fp)
 8002ad8:	1083ffc4 	addi	r2,r2,4095
 8002adc:	e0bffe15 	stw	r2,-8(fp)
 8002ae0:	e0fffe17 	ldw	r3,-8(fp)
 8002ae4:	1805d33a 	srai	r2,r3,12
 8002ae8:	e0bffd15 	stw	r2,-12(fp)
    y = (y * 480) / 4096;
 8002aec:	e13ffc17 	ldw	r4,-16(fp)
 8002af0:	01407804 	movi	r5,480
 8002af4:	8005e7c0 	call	8005e7c <__mulsi3>
 8002af8:	e0bfff15 	stw	r2,-4(fp)
 8002afc:	e0ffff17 	ldw	r3,-4(fp)
 8002b00:	1804403a 	cmpge	r2,r3,zero
 8002b04:	1000031e 	bne	r2,zero,8002b14 <touch_isr+0xa0>
 8002b08:	e0bfff17 	ldw	r2,-4(fp)
 8002b0c:	1083ffc4 	addi	r2,r2,4095
 8002b10:	e0bfff15 	stw	r2,-4(fp)
 8002b14:	e0ffff17 	ldw	r3,-4(fp)
 8002b18:	1805d33a 	srai	r2,r3,12
 8002b1c:	e0bffc15 	stw	r2,-16(fp)

    fifo_push(x, y); // Push touch coordinates into FIFO
 8002b20:	e13ffd17 	ldw	r4,-12(fp)
 8002b24:	e17ffc17 	ldw	r5,-16(fp)
 8002b28:	80027800 	call	8002780 <fifo_push>
    stack_push(x, y); // Push touch coordinates into stack
 8002b2c:	e13ffd17 	ldw	r4,-12(fp)
 8002b30:	e17ffc17 	ldw	r5,-16(fp)
 8002b34:	80029200 	call	8002920 <stack_push>
}
 8002b38:	e037883a 	mov	sp,fp
 8002b3c:	dfc00117 	ldw	ra,4(sp)
 8002b40:	df000017 	ldw	fp,0(sp)
 8002b44:	dec00204 	addi	sp,sp,8
 8002b48:	f800283a 	ret

08002b4c <DoEnablePIOint>:

// Enable PIO interrupt
void DoEnablePIOint(void) {
 8002b4c:	defffe04 	addi	sp,sp,-8
 8002b50:	dfc00115 	stw	ra,4(sp)
 8002b54:	df000015 	stw	fp,0(sp)
 8002b58:	d839883a 	mov	fp,sp
    alt_irq_register(TOUCHIRQ_IRQ, 0, touch_isr); // Register interrupt handler
 8002b5c:	01000104 	movi	r4,4
 8002b60:	000b883a 	mov	r5,zero
 8002b64:	01820034 	movhi	r6,2048
 8002b68:	318a9d04 	addi	r6,r6,10868
 8002b6c:	80107b40 	call	80107b4 <alt_irq_register>
    IOWR(TOUCHIRQ_BASE, 2, 0x01);                // Enable TouchIRQ interrupt
 8002b70:	00802034 	movhi	r2,128
 8002b74:	10841a04 	addi	r2,r2,4200
 8002b78:	00c00044 	movi	r3,1
 8002b7c:	10c00035 	stwio	r3,0(r2)
    IOWR(TOUCHIRQ_BASE, 3, 0);                   // Clear edgecapture register bits
 8002b80:	00802034 	movhi	r2,128
 8002b84:	10841b04 	addi	r2,r2,4204
 8002b88:	10000035 	stwio	zero,0(r2)
}
 8002b8c:	e037883a 	mov	sp,fp
 8002b90:	dfc00117 	ldw	ra,4(sp)
 8002b94:	df000017 	ldw	fp,0(sp)
 8002b98:	dec00204 	addi	sp,sp,8
 8002b9c:	f800283a 	ret

08002ba0 <print_input_data>:

void print_input_data(float *input_data, int rows, int cols) {
 8002ba0:	defff904 	addi	sp,sp,-28
 8002ba4:	dfc00615 	stw	ra,24(sp)
 8002ba8:	df000515 	stw	fp,20(sp)
 8002bac:	df000504 	addi	fp,sp,20
 8002bb0:	e13ffd15 	stw	r4,-12(fp)
 8002bb4:	e17ffe15 	stw	r5,-8(fp)
 8002bb8:	e1bfff15 	stw	r6,-4(fp)
    int i, j;
    if (input_data == NULL) {
 8002bbc:	e0bffd17 	ldw	r2,-12(fp)
 8002bc0:	1004c03a 	cmpne	r2,r2,zero
 8002bc4:	1000041e 	bne	r2,zero,8002bd8 <print_input_data+0x38>
        printf("Input data is NULL.\n");
 8002bc8:	010200b4 	movhi	r4,2050
 8002bcc:	21204f04 	addi	r4,r4,-32452
 8002bd0:	80088880 	call	8008888 <puts>
        return;
 8002bd4:	00002c06 	br	8002c88 <print_input_data+0xe8>
    }

    printf("Input Data (%dx%d):\n", rows, cols);
 8002bd8:	010200b4 	movhi	r4,2050
 8002bdc:	21205404 	addi	r4,r4,-32432
 8002be0:	e17ffe17 	ldw	r5,-8(fp)
 8002be4:	e1bfff17 	ldw	r6,-4(fp)
 8002be8:	800874c0 	call	800874c <printf>
    for (i = 0; i < rows; i++) {
 8002bec:	e03ffc15 	stw	zero,-16(fp)
 8002bf0:	00002206 	br	8002c7c <print_input_data+0xdc>
        for (j = 0; j < cols; j++) {
 8002bf4:	e03ffb15 	stw	zero,-20(fp)
 8002bf8:	00001806 	br	8002c5c <print_input_data+0xbc>
            printf("%0.0f ", input_data[i * cols + j]); // Print as 0 or 1
 8002bfc:	e13ffc17 	ldw	r4,-16(fp)
 8002c00:	e17fff17 	ldw	r5,-4(fp)
 8002c04:	8005e7c0 	call	8005e7c <__mulsi3>
 8002c08:	1007883a 	mov	r3,r2
 8002c0c:	e0bffb17 	ldw	r2,-20(fp)
 8002c10:	1885883a 	add	r2,r3,r2
 8002c14:	1085883a 	add	r2,r2,r2
 8002c18:	1085883a 	add	r2,r2,r2
 8002c1c:	1007883a 	mov	r3,r2
 8002c20:	e0bffd17 	ldw	r2,-12(fp)
 8002c24:	1885883a 	add	r2,r3,r2
 8002c28:	10800017 	ldw	r2,0(r2)
 8002c2c:	1009883a 	mov	r4,r2
 8002c30:	8004dac0 	call	8004dac <__extendsfdf2>
 8002c34:	100d883a 	mov	r6,r2
 8002c38:	180f883a 	mov	r7,r3
 8002c3c:	010200b4 	movhi	r4,2050
 8002c40:	21205a04 	addi	r4,r4,-32408
 8002c44:	300b883a 	mov	r5,r6
 8002c48:	380d883a 	mov	r6,r7
 8002c4c:	800874c0 	call	800874c <printf>
        return;
    }

    printf("Input Data (%dx%d):\n", rows, cols);
    for (i = 0; i < rows; i++) {
        for (j = 0; j < cols; j++) {
 8002c50:	e0bffb17 	ldw	r2,-20(fp)
 8002c54:	10800044 	addi	r2,r2,1
 8002c58:	e0bffb15 	stw	r2,-20(fp)
 8002c5c:	e0fffb17 	ldw	r3,-20(fp)
 8002c60:	e0bfff17 	ldw	r2,-4(fp)
 8002c64:	18bfe516 	blt	r3,r2,8002bfc <print_input_data+0x5c>
            printf("%0.0f ", input_data[i * cols + j]); // Print as 0 or 1
        }
        printf("\n"); // Newline after each row
 8002c68:	01000284 	movi	r4,10
 8002c6c:	80087c40 	call	80087c4 <putchar>
        printf("Input data is NULL.\n");
        return;
    }

    printf("Input Data (%dx%d):\n", rows, cols);
    for (i = 0; i < rows; i++) {
 8002c70:	e0bffc17 	ldw	r2,-16(fp)
 8002c74:	10800044 	addi	r2,r2,1
 8002c78:	e0bffc15 	stw	r2,-16(fp)
 8002c7c:	e0fffc17 	ldw	r3,-16(fp)
 8002c80:	e0bffe17 	ldw	r2,-8(fp)
 8002c84:	18bfdb16 	blt	r3,r2,8002bf4 <print_input_data+0x54>
        for (j = 0; j < cols; j++) {
            printf("%0.0f ", input_data[i * cols + j]); // Print as 0 or 1
        }
        printf("\n"); // Newline after each row
    }
}
 8002c88:	e037883a 	mov	sp,fp
 8002c8c:	dfc00117 	ldw	ra,4(sp)
 8002c90:	df000017 	ldw	fp,0(sp)
 8002c94:	dec00204 	addi	sp,sp,8
 8002c98:	f800283a 	ret

08002c9c <read_bin_file>:

// Read binary file
float *read_bin_file(const char *filename, int size) {
 8002c9c:	defffa04 	addi	sp,sp,-24
 8002ca0:	dfc00515 	stw	ra,20(sp)
 8002ca4:	df000415 	stw	fp,16(sp)
 8002ca8:	df000404 	addi	fp,sp,16
 8002cac:	e13ffe15 	stw	r4,-8(fp)
 8002cb0:	e17fff15 	stw	r5,-4(fp)
    FILE *file = fopen(filename, "rb");
 8002cb4:	e13ffe17 	ldw	r4,-8(fp)
 8002cb8:	014200b4 	movhi	r5,2050
 8002cbc:	29605c04 	addi	r5,r5,-32400
 8002cc0:	8006f240 	call	8006f24 <fopen>
 8002cc4:	e0bffd15 	stw	r2,-12(fp)
    if (!file) {
 8002cc8:	e0bffd17 	ldw	r2,-12(fp)
 8002ccc:	1004c03a 	cmpne	r2,r2,zero
 8002cd0:	1000051e 	bne	r2,zero,8002ce8 <read_bin_file+0x4c>
        perror("Failed to open file");
 8002cd4:	010200b4 	movhi	r4,2050
 8002cd8:	21205d04 	addi	r4,r4,-32396
 8002cdc:	80087380 	call	8008738 <perror>
        exit(EXIT_FAILURE);
 8002ce0:	01000044 	movi	r4,1
 8002ce4:	80067b00 	call	80067b0 <exit>
    }

    float *data = (float *)malloc(size * sizeof(float));
 8002ce8:	e0bfff17 	ldw	r2,-4(fp)
 8002cec:	1085883a 	add	r2,r2,r2
 8002cf0:	1085883a 	add	r2,r2,r2
 8002cf4:	1009883a 	mov	r4,r2
 8002cf8:	8007dc80 	call	8007dc8 <malloc>
 8002cfc:	e0bffc15 	stw	r2,-16(fp)
    if (!data) {
 8002d00:	e0bffc17 	ldw	r2,-16(fp)
 8002d04:	1004c03a 	cmpne	r2,r2,zero
 8002d08:	1000071e 	bne	r2,zero,8002d28 <read_bin_file+0x8c>
        perror("Failed to allocate memory");
 8002d0c:	010200b4 	movhi	r4,2050
 8002d10:	21206204 	addi	r4,r4,-32376
 8002d14:	80087380 	call	8008738 <perror>
        fclose(file);
 8002d18:	e13ffd17 	ldw	r4,-12(fp)
 8002d1c:	80068f80 	call	80068f8 <fclose>
        exit(EXIT_FAILURE);
 8002d20:	01000044 	movi	r4,1
 8002d24:	80067b00 	call	80067b0 <exit>
    }

    fread(data, sizeof(float), size, file);
 8002d28:	e1bfff17 	ldw	r6,-4(fp)
 8002d2c:	e13ffc17 	ldw	r4,-16(fp)
 8002d30:	01400104 	movi	r5,4
 8002d34:	e1fffd17 	ldw	r7,-12(fp)
 8002d38:	800714c0 	call	800714c <fread>
    fclose(file);
 8002d3c:	e13ffd17 	ldw	r4,-12(fp)
 8002d40:	80068f80 	call	80068f8 <fclose>
    return data;
 8002d44:	e0bffc17 	ldw	r2,-16(fp)
}
 8002d48:	e037883a 	mov	sp,fp
 8002d4c:	dfc00117 	ldw	ra,4(sp)
 8002d50:	df000017 	ldw	fp,0(sp)
 8002d54:	dec00204 	addi	sp,sp,8
 8002d58:	f800283a 	ret

08002d5c <DenseLayerReLU>:

// Optimized fully connected (dense) layer with integrated ReLU activation
void DenseLayerReLU(float *input, int input_size, float *weights, float *biases, float *output, int output_size) {
 8002d5c:	defff404 	addi	sp,sp,-48
 8002d60:	dfc00b15 	stw	ra,44(sp)
 8002d64:	df000a15 	stw	fp,40(sp)
 8002d68:	dc000915 	stw	r16,36(sp)
 8002d6c:	df000904 	addi	fp,sp,36
 8002d70:	e13ffa15 	stw	r4,-24(fp)
 8002d74:	e17ffb15 	stw	r5,-20(fp)
 8002d78:	e1bffc15 	stw	r6,-16(fp)
 8002d7c:	e1fffd15 	stw	r7,-12(fp)
    int i, j;

    for (i = 0; i < output_size; i++) {
 8002d80:	e03ff915 	stw	zero,-28(fp)
 8002d84:	00003f06 	br	8002e84 <DenseLayerReLU+0x128>
        float sum = biases[i]; // Start with the bias
 8002d88:	e0bff917 	ldw	r2,-28(fp)
 8002d8c:	1085883a 	add	r2,r2,r2
 8002d90:	1085883a 	add	r2,r2,r2
 8002d94:	1007883a 	mov	r3,r2
 8002d98:	e0bffd17 	ldw	r2,-12(fp)
 8002d9c:	1885883a 	add	r2,r3,r2
 8002da0:	10800017 	ldw	r2,0(r2)
 8002da4:	e0bff715 	stw	r2,-36(fp)

        for (j = 0; j < input_size; j++) {
 8002da8:	e03ff815 	stw	zero,-32(fp)
 8002dac:	00001a06 	br	8002e18 <DenseLayerReLU+0xbc>
            sum += input[j] * weights[j * output_size + i];
 8002db0:	e0bff817 	ldw	r2,-32(fp)
 8002db4:	1085883a 	add	r2,r2,r2
 8002db8:	1085883a 	add	r2,r2,r2
 8002dbc:	1007883a 	mov	r3,r2
 8002dc0:	e0bffa17 	ldw	r2,-24(fp)
 8002dc4:	1885883a 	add	r2,r3,r2
 8002dc8:	14000017 	ldw	r16,0(r2)
 8002dcc:	e13ff817 	ldw	r4,-32(fp)
 8002dd0:	e1400417 	ldw	r5,16(fp)
 8002dd4:	8005e7c0 	call	8005e7c <__mulsi3>
 8002dd8:	1007883a 	mov	r3,r2
 8002ddc:	e0bff917 	ldw	r2,-28(fp)
 8002de0:	1885883a 	add	r2,r3,r2
 8002de4:	1085883a 	add	r2,r2,r2
 8002de8:	1085883a 	add	r2,r2,r2
 8002dec:	1007883a 	mov	r3,r2
 8002df0:	e0bffc17 	ldw	r2,-16(fp)
 8002df4:	1885883a 	add	r2,r3,r2
 8002df8:	10800017 	ldw	r2,0(r2)
 8002dfc:	8087ff32 	custom	252,r3,r16,r2
 8002e00:	e0bff717 	ldw	r2,-36(fp)
 8002e04:	10c5ff72 	custom	253,r2,r2,r3
 8002e08:	e0bff715 	stw	r2,-36(fp)
    int i, j;

    for (i = 0; i < output_size; i++) {
        float sum = biases[i]; // Start with the bias

        for (j = 0; j < input_size; j++) {
 8002e0c:	e0bff817 	ldw	r2,-32(fp)
 8002e10:	10800044 	addi	r2,r2,1
 8002e14:	e0bff815 	stw	r2,-32(fp)
 8002e18:	e0fff817 	ldw	r3,-32(fp)
 8002e1c:	e0bffb17 	ldw	r2,-20(fp)
 8002e20:	18bfe316 	blt	r3,r2,8002db0 <DenseLayerReLU+0x54>
            sum += input[j] * weights[j * output_size + i];
        }

        // Apply ReLU activation immediately
        output[i] = sum > 0 ? sum : 0;
 8002e24:	e0bff917 	ldw	r2,-28(fp)
 8002e28:	1085883a 	add	r2,r2,r2
 8002e2c:	1085883a 	add	r2,r2,r2
 8002e30:	1007883a 	mov	r3,r2
 8002e34:	e0800317 	ldw	r2,12(fp)
 8002e38:	1887883a 	add	r3,r3,r2
 8002e3c:	e0ffff15 	stw	r3,-4(fp)
 8002e40:	e13ff717 	ldw	r4,-36(fp)
 8002e44:	000b883a 	mov	r5,zero
 8002e48:	8004b900 	call	8004b90 <__gtsf2>
 8002e4c:	10800048 	cmpgei	r2,r2,1
 8002e50:	1000011e 	bne	r2,zero,8002e58 <DenseLayerReLU+0xfc>
 8002e54:	00000306 	br	8002e64 <DenseLayerReLU+0x108>
 8002e58:	e0bff717 	ldw	r2,-36(fp)
 8002e5c:	e0bffe15 	stw	r2,-8(fp)
 8002e60:	00000206 	br	8002e6c <DenseLayerReLU+0x110>
 8002e64:	0007883a 	mov	r3,zero
 8002e68:	e0fffe15 	stw	r3,-8(fp)
 8002e6c:	e0fffe17 	ldw	r3,-8(fp)
 8002e70:	e0bfff17 	ldw	r2,-4(fp)
 8002e74:	10c00015 	stw	r3,0(r2)

// Optimized fully connected (dense) layer with integrated ReLU activation
void DenseLayerReLU(float *input, int input_size, float *weights, float *biases, float *output, int output_size) {
    int i, j;

    for (i = 0; i < output_size; i++) {
 8002e78:	e0bff917 	ldw	r2,-28(fp)
 8002e7c:	10800044 	addi	r2,r2,1
 8002e80:	e0bff915 	stw	r2,-28(fp)
 8002e84:	e0fff917 	ldw	r3,-28(fp)
 8002e88:	e0800417 	ldw	r2,16(fp)
 8002e8c:	18bfbe16 	blt	r3,r2,8002d88 <DenseLayerReLU+0x2c>
        }

        // Apply ReLU activation immediately
        output[i] = sum > 0 ? sum : 0;
    }
}
 8002e90:	e037883a 	mov	sp,fp
 8002e94:	dfc00217 	ldw	ra,8(sp)
 8002e98:	df000117 	ldw	fp,4(sp)
 8002e9c:	dc000017 	ldw	r16,0(sp)
 8002ea0:	dec00304 	addi	sp,sp,12
 8002ea4:	f800283a 	ret

08002ea8 <DenseLayer>:

// Original DenseLayer function without ReLU (used for the output layer)
void DenseLayer(float *input, int input_size, float *weights, float *biases, float *output, int output_size) {
 8002ea8:	defff604 	addi	sp,sp,-40
 8002eac:	dfc00915 	stw	ra,36(sp)
 8002eb0:	df000815 	stw	fp,32(sp)
 8002eb4:	df000804 	addi	fp,sp,32
 8002eb8:	e13ffc15 	stw	r4,-16(fp)
 8002ebc:	e17ffd15 	stw	r5,-12(fp)
 8002ec0:	e1bffe15 	stw	r6,-8(fp)
 8002ec4:	e1ffff15 	stw	r7,-4(fp)
    int i, j;
    // Initialize output with biases
    memcpy(output, biases, output_size * sizeof(float));
 8002ec8:	e0800317 	ldw	r2,12(fp)
 8002ecc:	1085883a 	add	r2,r2,r2
 8002ed0:	1085883a 	add	r2,r2,r2
 8002ed4:	100d883a 	mov	r6,r2
 8002ed8:	e0800217 	ldw	r2,8(fp)
 8002edc:	e0ffff17 	ldw	r3,-4(fp)
 8002ee0:	1009883a 	mov	r4,r2
 8002ee4:	180b883a 	mov	r5,r3
 8002ee8:	800851c0 	call	800851c <memcpy>

    // Perform matrix-vector multiplication
    for (j = 0; j < input_size; j++) {
 8002eec:	e03ffa15 	stw	zero,-24(fp)
 8002ef0:	00003406 	br	8002fc4 <DenseLayer+0x11c>
        float input_j = input[j];
 8002ef4:	e0bffa17 	ldw	r2,-24(fp)
 8002ef8:	1085883a 	add	r2,r2,r2
 8002efc:	1085883a 	add	r2,r2,r2
 8002f00:	1007883a 	mov	r3,r2
 8002f04:	e0bffc17 	ldw	r2,-16(fp)
 8002f08:	1885883a 	add	r2,r3,r2
 8002f0c:	10800017 	ldw	r2,0(r2)
 8002f10:	e0bff915 	stw	r2,-28(fp)
        float *weight_row = &weights[j * output_size]; // Access weights row-wise
 8002f14:	e13ffa17 	ldw	r4,-24(fp)
 8002f18:	e1400317 	ldw	r5,12(fp)
 8002f1c:	8005e7c0 	call	8005e7c <__mulsi3>
 8002f20:	1085883a 	add	r2,r2,r2
 8002f24:	1085883a 	add	r2,r2,r2
 8002f28:	1007883a 	mov	r3,r2
 8002f2c:	e0bffe17 	ldw	r2,-8(fp)
 8002f30:	1885883a 	add	r2,r3,r2
 8002f34:	e0bff815 	stw	r2,-32(fp)
        for (i = 0; i < output_size; i++) {
 8002f38:	e03ffb15 	stw	zero,-20(fp)
 8002f3c:	00001b06 	br	8002fac <DenseLayer+0x104>
            output[i] += input_j * weight_row[i];
 8002f40:	e0bffb17 	ldw	r2,-20(fp)
 8002f44:	1085883a 	add	r2,r2,r2
 8002f48:	1085883a 	add	r2,r2,r2
 8002f4c:	1007883a 	mov	r3,r2
 8002f50:	e0800217 	ldw	r2,8(fp)
 8002f54:	1889883a 	add	r4,r3,r2
 8002f58:	e0bffb17 	ldw	r2,-20(fp)
 8002f5c:	1085883a 	add	r2,r2,r2
 8002f60:	1085883a 	add	r2,r2,r2
 8002f64:	1007883a 	mov	r3,r2
 8002f68:	e0800217 	ldw	r2,8(fp)
 8002f6c:	1885883a 	add	r2,r3,r2
 8002f70:	11400017 	ldw	r5,0(r2)
 8002f74:	e0bffb17 	ldw	r2,-20(fp)
 8002f78:	1085883a 	add	r2,r2,r2
 8002f7c:	1085883a 	add	r2,r2,r2
 8002f80:	1007883a 	mov	r3,r2
 8002f84:	e0bff817 	ldw	r2,-32(fp)
 8002f88:	1885883a 	add	r2,r3,r2
 8002f8c:	10c00017 	ldw	r3,0(r2)
 8002f90:	e0bff917 	ldw	r2,-28(fp)
 8002f94:	1885ff32 	custom	252,r2,r3,r2
 8002f98:	2885ff72 	custom	253,r2,r5,r2
 8002f9c:	20800015 	stw	r2,0(r4)

    // Perform matrix-vector multiplication
    for (j = 0; j < input_size; j++) {
        float input_j = input[j];
        float *weight_row = &weights[j * output_size]; // Access weights row-wise
        for (i = 0; i < output_size; i++) {
 8002fa0:	e0bffb17 	ldw	r2,-20(fp)
 8002fa4:	10800044 	addi	r2,r2,1
 8002fa8:	e0bffb15 	stw	r2,-20(fp)
 8002fac:	e0fffb17 	ldw	r3,-20(fp)
 8002fb0:	e0800317 	ldw	r2,12(fp)
 8002fb4:	18bfe216 	blt	r3,r2,8002f40 <DenseLayer+0x98>
    int i, j;
    // Initialize output with biases
    memcpy(output, biases, output_size * sizeof(float));

    // Perform matrix-vector multiplication
    for (j = 0; j < input_size; j++) {
 8002fb8:	e0bffa17 	ldw	r2,-24(fp)
 8002fbc:	10800044 	addi	r2,r2,1
 8002fc0:	e0bffa15 	stw	r2,-24(fp)
 8002fc4:	e0fffa17 	ldw	r3,-24(fp)
 8002fc8:	e0bffd17 	ldw	r2,-12(fp)
 8002fcc:	18bfc916 	blt	r3,r2,8002ef4 <DenseLayer+0x4c>
        float *weight_row = &weights[j * output_size]; // Access weights row-wise
        for (i = 0; i < output_size; i++) {
            output[i] += input_j * weight_row[i];
        }
    }
}
 8002fd0:	e037883a 	mov	sp,fp
 8002fd4:	dfc00117 	ldw	ra,4(sp)
 8002fd8:	df000017 	ldw	fp,0(sp)
 8002fdc:	dec00204 	addi	sp,sp,8
 8002fe0:	f800283a 	ret

08002fe4 <Softmax>:

// Optimized Softmax function
void Softmax(float *x, int size) {
 8002fe4:	defff704 	addi	sp,sp,-36
 8002fe8:	dfc00815 	stw	ra,32(sp)
 8002fec:	df000715 	stw	fp,28(sp)
 8002ff0:	dc000615 	stw	r16,24(sp)
 8002ff4:	df000604 	addi	fp,sp,24
 8002ff8:	e13ffe15 	stw	r4,-8(fp)
 8002ffc:	e17fff15 	stw	r5,-4(fp)
    int i;
    float max_val = x[0];
 8003000:	e0bffe17 	ldw	r2,-8(fp)
 8003004:	10800017 	ldw	r2,0(r2)
 8003008:	e0bffc15 	stw	r2,-16(fp)
    float sum_exp = 0.0f;
 800300c:	e03ffb15 	stw	zero,-20(fp)

    // Find max value for numerical stability
    for (i = 1; i < size; i++) {
 8003010:	00800044 	movi	r2,1
 8003014:	e0bffd15 	stw	r2,-12(fp)
 8003018:	00001806 	br	800307c <Softmax+0x98>
        if (x[i] > max_val) max_val = x[i];
 800301c:	e0bffd17 	ldw	r2,-12(fp)
 8003020:	1085883a 	add	r2,r2,r2
 8003024:	1085883a 	add	r2,r2,r2
 8003028:	1007883a 	mov	r3,r2
 800302c:	e0bffe17 	ldw	r2,-8(fp)
 8003030:	1885883a 	add	r2,r3,r2
 8003034:	10800017 	ldw	r2,0(r2)
 8003038:	1009883a 	mov	r4,r2
 800303c:	e17ffc17 	ldw	r5,-16(fp)
 8003040:	8004b900 	call	8004b90 <__gtsf2>
 8003044:	10800048 	cmpgei	r2,r2,1
 8003048:	1000011e 	bne	r2,zero,8003050 <Softmax+0x6c>
 800304c:	00000806 	br	8003070 <Softmax+0x8c>
 8003050:	e0bffd17 	ldw	r2,-12(fp)
 8003054:	1085883a 	add	r2,r2,r2
 8003058:	1085883a 	add	r2,r2,r2
 800305c:	1007883a 	mov	r3,r2
 8003060:	e0bffe17 	ldw	r2,-8(fp)
 8003064:	1885883a 	add	r2,r3,r2
 8003068:	10800017 	ldw	r2,0(r2)
 800306c:	e0bffc15 	stw	r2,-16(fp)
    int i;
    float max_val = x[0];
    float sum_exp = 0.0f;

    // Find max value for numerical stability
    for (i = 1; i < size; i++) {
 8003070:	e0bffd17 	ldw	r2,-12(fp)
 8003074:	10800044 	addi	r2,r2,1
 8003078:	e0bffd15 	stw	r2,-12(fp)
 800307c:	e0fffd17 	ldw	r3,-12(fp)
 8003080:	e0bfff17 	ldw	r2,-4(fp)
 8003084:	18bfe516 	blt	r3,r2,800301c <Softmax+0x38>
        if (x[i] > max_val) max_val = x[i];
    }

    // Compute exponentials and accumulate sum
    for (i = 0; i < size; i++) {
 8003088:	e03ffd15 	stw	zero,-12(fp)
 800308c:	00001f06 	br	800310c <Softmax+0x128>
        x[i] = expf(x[i] - max_val);
 8003090:	e0bffd17 	ldw	r2,-12(fp)
 8003094:	1085883a 	add	r2,r2,r2
 8003098:	1085883a 	add	r2,r2,r2
 800309c:	1007883a 	mov	r3,r2
 80030a0:	e0bffe17 	ldw	r2,-8(fp)
 80030a4:	18a1883a 	add	r16,r3,r2
 80030a8:	e0bffd17 	ldw	r2,-12(fp)
 80030ac:	1085883a 	add	r2,r2,r2
 80030b0:	1085883a 	add	r2,r2,r2
 80030b4:	1007883a 	mov	r3,r2
 80030b8:	e0bffe17 	ldw	r2,-8(fp)
 80030bc:	1885883a 	add	r2,r3,r2
 80030c0:	10c00017 	ldw	r3,0(r2)
 80030c4:	e0bffc17 	ldw	r2,-16(fp)
 80030c8:	1885ffb2 	custom	254,r2,r3,r2
 80030cc:	1009883a 	mov	r4,r2
 80030d0:	80040580 	call	8004058 <expf>
 80030d4:	80800015 	stw	r2,0(r16)
        sum_exp += x[i];
 80030d8:	e0bffd17 	ldw	r2,-12(fp)
 80030dc:	1085883a 	add	r2,r2,r2
 80030e0:	1085883a 	add	r2,r2,r2
 80030e4:	1007883a 	mov	r3,r2
 80030e8:	e0bffe17 	ldw	r2,-8(fp)
 80030ec:	1885883a 	add	r2,r3,r2
 80030f0:	10c00017 	ldw	r3,0(r2)
 80030f4:	e0bffb17 	ldw	r2,-20(fp)
 80030f8:	10c5ff72 	custom	253,r2,r2,r3
 80030fc:	e0bffb15 	stw	r2,-20(fp)
    for (i = 1; i < size; i++) {
        if (x[i] > max_val) max_val = x[i];
    }

    // Compute exponentials and accumulate sum
    for (i = 0; i < size; i++) {
 8003100:	e0bffd17 	ldw	r2,-12(fp)
 8003104:	10800044 	addi	r2,r2,1
 8003108:	e0bffd15 	stw	r2,-12(fp)
 800310c:	e0fffd17 	ldw	r3,-12(fp)
 8003110:	e0bfff17 	ldw	r2,-4(fp)
 8003114:	18bfde16 	blt	r3,r2,8003090 <Softmax+0xac>
        x[i] = expf(x[i] - max_val);
        sum_exp += x[i];
    }

    // Normalize the exponentials
    float inv_sum_exp = 1.0f / sum_exp;
 8003118:	008fe034 	movhi	r2,16256
 800311c:	e0fffb17 	ldw	r3,-20(fp)
 8003120:	10c5fff2 	custom	255,r2,r2,r3
 8003124:	e0bffa15 	stw	r2,-24(fp)
    for (i = 0; i < size; i++) {
 8003128:	e03ffd15 	stw	zero,-12(fp)
 800312c:	00001306 	br	800317c <Softmax+0x198>
        x[i] *= inv_sum_exp;
 8003130:	e0bffd17 	ldw	r2,-12(fp)
 8003134:	1085883a 	add	r2,r2,r2
 8003138:	1085883a 	add	r2,r2,r2
 800313c:	1007883a 	mov	r3,r2
 8003140:	e0bffe17 	ldw	r2,-8(fp)
 8003144:	1889883a 	add	r4,r3,r2
 8003148:	e0bffd17 	ldw	r2,-12(fp)
 800314c:	1085883a 	add	r2,r2,r2
 8003150:	1085883a 	add	r2,r2,r2
 8003154:	1007883a 	mov	r3,r2
 8003158:	e0bffe17 	ldw	r2,-8(fp)
 800315c:	1885883a 	add	r2,r3,r2
 8003160:	10c00017 	ldw	r3,0(r2)
 8003164:	e0bffa17 	ldw	r2,-24(fp)
 8003168:	1885ff32 	custom	252,r2,r3,r2
 800316c:	20800015 	stw	r2,0(r4)
        sum_exp += x[i];
    }

    // Normalize the exponentials
    float inv_sum_exp = 1.0f / sum_exp;
    for (i = 0; i < size; i++) {
 8003170:	e0bffd17 	ldw	r2,-12(fp)
 8003174:	10800044 	addi	r2,r2,1
 8003178:	e0bffd15 	stw	r2,-12(fp)
 800317c:	e0fffd17 	ldw	r3,-12(fp)
 8003180:	e0bfff17 	ldw	r2,-4(fp)
 8003184:	18bfea16 	blt	r3,r2,8003130 <Softmax+0x14c>
        x[i] *= inv_sum_exp;
    }
}
 8003188:	e037883a 	mov	sp,fp
 800318c:	dfc00217 	ldw	ra,8(sp)
 8003190:	df000117 	ldw	fp,4(sp)
 8003194:	dc000017 	ldw	r16,0(sp)
 8003198:	dec00304 	addi	sp,sp,12
 800319c:	f800283a 	ret

080031a0 <display_time_to_segments>:

// Function to display time_taken on 7-segment displays
void display_time_to_segments(double time_taken) {
 80031a0:	defff604 	addi	sp,sp,-40
 80031a4:	dfc00915 	stw	ra,36(sp)
 80031a8:	df000815 	stw	fp,32(sp)
 80031ac:	df000804 	addi	fp,sp,32
 80031b0:	e13ffe15 	stw	r4,-8(fp)
 80031b4:	e17fff15 	stw	r5,-4(fp)
    // Separate integer and fractional parts
    int int_part = (int)time_taken;                // Integer part (e.g., 0)
 80031b8:	e13ffe17 	ldw	r4,-8(fp)
 80031bc:	e17fff17 	ldw	r5,-4(fp)
 80031c0:	8005a180 	call	8005a18 <__fixdfsi>
 80031c4:	e0bffd15 	stw	r2,-12(fp)
    int frac_part = (int)((time_taken - int_part) * 100); // Fractional part scaled to 4 digits (e.g., 6518)
 80031c8:	e13ffd17 	ldw	r4,-12(fp)
 80031cc:	80059200 	call	8005920 <__floatsidf>
 80031d0:	100f883a 	mov	r7,r2
 80031d4:	1811883a 	mov	r8,r3
 80031d8:	e13ffe17 	ldw	r4,-8(fp)
 80031dc:	e17fff17 	ldw	r5,-4(fp)
 80031e0:	380d883a 	mov	r6,r7
 80031e4:	400f883a 	mov	r7,r8
 80031e8:	80052100 	call	8005210 <__subdf3>
 80031ec:	1009883a 	mov	r4,r2
 80031f0:	180b883a 	mov	r5,r3
 80031f4:	2005883a 	mov	r2,r4
 80031f8:	2807883a 	mov	r3,r5
 80031fc:	1009883a 	mov	r4,r2
 8003200:	180b883a 	mov	r5,r3
 8003204:	000d883a 	mov	r6,zero
 8003208:	01d01674 	movhi	r7,16473
 800320c:	80053040 	call	8005304 <__muldf3>
 8003210:	1009883a 	mov	r4,r2
 8003214:	180b883a 	mov	r5,r3
 8003218:	2005883a 	mov	r2,r4
 800321c:	2807883a 	mov	r3,r5
 8003220:	1009883a 	mov	r4,r2
 8003224:	180b883a 	mov	r5,r3
 8003228:	8005a180 	call	8005a18 <__fixdfsi>
 800322c:	e0bffc15 	stw	r2,-16(fp)

    // Display integer part with decimal point on SEG3
    int decimal_point = SEG_PATTERN[int_part] | 0x80; // Add decimal point
 8003230:	e0fffd17 	ldw	r3,-12(fp)
 8003234:	008200b4 	movhi	r2,2050
 8003238:	10a04204 	addi	r2,r2,-32504
 800323c:	10c5883a 	add	r2,r2,r3
 8003240:	10c00003 	ldbu	r3,0(r2)
 8003244:	00bfe004 	movi	r2,-128
 8003248:	1884b03a 	or	r2,r3,r2
 800324c:	10803fcc 	andi	r2,r2,255
 8003250:	e0bffb15 	stw	r2,-20(fp)
    IOWR(SEG3_BASE, 0, ~decimal_point);
 8003254:	e0bffb17 	ldw	r2,-20(fp)
 8003258:	0086303a 	nor	r3,zero,r2
 800325c:	00808034 	movhi	r2,512
 8003260:	10802004 	addi	r2,r2,128
 8003264:	10c00035 	stwio	r3,0(r2)

    // Extract and display fractional part digits
    int digit2 = frac_part % 10; // Extract least significant digit
 8003268:	e13ffc17 	ldw	r4,-16(fp)
 800326c:	01400284 	movi	r5,10
 8003270:	8005e0c0 	call	8005e0c <__modsi3>
 8003274:	e0bffa15 	stw	r2,-24(fp)
    frac_part /= 10;
 8003278:	e13ffc17 	ldw	r4,-16(fp)
 800327c:	01400284 	movi	r5,10
 8003280:	8005dac0 	call	8005dac <__divsi3>
 8003284:	e0bffc15 	stw	r2,-16(fp)

    int digit1 = frac_part % 10; // Extract next digit
 8003288:	e13ffc17 	ldw	r4,-16(fp)
 800328c:	01400284 	movi	r5,10
 8003290:	8005e0c0 	call	8005e0c <__modsi3>
 8003294:	e0bff915 	stw	r2,-28(fp)
    frac_part /= 10;
 8003298:	e13ffc17 	ldw	r4,-16(fp)
 800329c:	01400284 	movi	r5,10
 80032a0:	8005dac0 	call	8005dac <__divsi3>
 80032a4:	e0bffc15 	stw	r2,-16(fp)

    int digit0 = frac_part % 10; // Extract next digit
 80032a8:	e13ffc17 	ldw	r4,-16(fp)
 80032ac:	01400284 	movi	r5,10
 80032b0:	8005e0c0 	call	8005e0c <__modsi3>
 80032b4:	e0bff815 	stw	r2,-32(fp)

    // Display digits on SEG2, SEG1, SEG0
    IOWR(SEG2_BASE, 0, ~SEG_PATTERN[digit0]); // Most significant fractional digit
 80032b8:	e0fff817 	ldw	r3,-32(fp)
 80032bc:	008200b4 	movhi	r2,2050
 80032c0:	10a04204 	addi	r2,r2,-32504
 80032c4:	10c5883a 	add	r2,r2,r3
 80032c8:	10800003 	ldbu	r2,0(r2)
 80032cc:	10803fcc 	andi	r2,r2,255
 80032d0:	0086303a 	nor	r3,zero,r2
 80032d4:	00808034 	movhi	r2,512
 80032d8:	10802404 	addi	r2,r2,144
 80032dc:	10c00035 	stwio	r3,0(r2)
    IOWR(SEG1_BASE, 0, ~SEG_PATTERN[digit1]); // Middle fractional digit
 80032e0:	e0fff917 	ldw	r3,-28(fp)
 80032e4:	008200b4 	movhi	r2,2050
 80032e8:	10a04204 	addi	r2,r2,-32504
 80032ec:	10c5883a 	add	r2,r2,r3
 80032f0:	10800003 	ldbu	r2,0(r2)
 80032f4:	10803fcc 	andi	r2,r2,255
 80032f8:	0086303a 	nor	r3,zero,r2
 80032fc:	00808034 	movhi	r2,512
 8003300:	10802804 	addi	r2,r2,160
 8003304:	10c00035 	stwio	r3,0(r2)
    IOWR(SEG0_BASE, 0, ~SEG_PATTERN[digit2]); // Least significant fractional digit
 8003308:	e0fffa17 	ldw	r3,-24(fp)
 800330c:	008200b4 	movhi	r2,2050
 8003310:	10a04204 	addi	r2,r2,-32504
 8003314:	10c5883a 	add	r2,r2,r3
 8003318:	10800003 	ldbu	r2,0(r2)
 800331c:	10803fcc 	andi	r2,r2,255
 8003320:	0086303a 	nor	r3,zero,r2
 8003324:	00808034 	movhi	r2,512
 8003328:	10802c04 	addi	r2,r2,176
 800332c:	10c00035 	stwio	r3,0(r2)
}
 8003330:	e037883a 	mov	sp,fp
 8003334:	dfc00117 	ldw	ra,4(sp)
 8003338:	df000017 	ldw	fp,0(sp)
 800333c:	dec00204 	addi	sp,sp,8
 8003340:	f800283a 	ret

08003344 <display_probability_to_segments>:

void display_probability_to_segments(double probability){
 8003344:	defff804 	addi	sp,sp,-32
 8003348:	dfc00715 	stw	ra,28(sp)
 800334c:	df000615 	stw	fp,24(sp)
 8003350:	df000604 	addi	fp,sp,24
 8003354:	e13ffe15 	stw	r4,-8(fp)
 8003358:	e17fff15 	stw	r5,-4(fp)
	int int_part = (int)probability;                // Integer part (e.g., 0)
 800335c:	e13ffe17 	ldw	r4,-8(fp)
 8003360:	e17fff17 	ldw	r5,-4(fp)
 8003364:	8005a180 	call	8005a18 <__fixdfsi>
 8003368:	e0bffd15 	stw	r2,-12(fp)
	int frac_part = (int)((probability - int_part) * 100); // Fractional part scaled to 4 digits (e.g., 6518)
 800336c:	e13ffd17 	ldw	r4,-12(fp)
 8003370:	80059200 	call	8005920 <__floatsidf>
 8003374:	100f883a 	mov	r7,r2
 8003378:	1811883a 	mov	r8,r3
 800337c:	e13ffe17 	ldw	r4,-8(fp)
 8003380:	e17fff17 	ldw	r5,-4(fp)
 8003384:	380d883a 	mov	r6,r7
 8003388:	400f883a 	mov	r7,r8
 800338c:	80052100 	call	8005210 <__subdf3>
 8003390:	1009883a 	mov	r4,r2
 8003394:	180b883a 	mov	r5,r3
 8003398:	2005883a 	mov	r2,r4
 800339c:	2807883a 	mov	r3,r5
 80033a0:	1009883a 	mov	r4,r2
 80033a4:	180b883a 	mov	r5,r3
 80033a8:	000d883a 	mov	r6,zero
 80033ac:	01d01674 	movhi	r7,16473
 80033b0:	80053040 	call	8005304 <__muldf3>
 80033b4:	1009883a 	mov	r4,r2
 80033b8:	180b883a 	mov	r5,r3
 80033bc:	2005883a 	mov	r2,r4
 80033c0:	2807883a 	mov	r3,r5
 80033c4:	1009883a 	mov	r4,r2
 80033c8:	180b883a 	mov	r5,r3
 80033cc:	8005a180 	call	8005a18 <__fixdfsi>
 80033d0:	e0bffc15 	stw	r2,-16(fp)

	// Extract and display fractional part digits
	int digit2 = frac_part % 10; // Extract least significant digit
 80033d4:	e13ffc17 	ldw	r4,-16(fp)
 80033d8:	01400284 	movi	r5,10
 80033dc:	8005e0c0 	call	8005e0c <__modsi3>
 80033e0:	e0bffb15 	stw	r2,-20(fp)
	frac_part /= 10;
 80033e4:	e13ffc17 	ldw	r4,-16(fp)
 80033e8:	01400284 	movi	r5,10
 80033ec:	8005dac0 	call	8005dac <__divsi3>
 80033f0:	e0bffc15 	stw	r2,-16(fp)

	int digit1 = frac_part;
 80033f4:	e0bffc17 	ldw	r2,-16(fp)
 80033f8:	e0bffa15 	stw	r2,-24(fp)

	IOWR(SEG5_BASE, 0, ~SEG_PATTERN[digit1]); // Most significant fractional digit
 80033fc:	e0fffa17 	ldw	r3,-24(fp)
 8003400:	008200b4 	movhi	r2,2050
 8003404:	10a04204 	addi	r2,r2,-32504
 8003408:	10c5883a 	add	r2,r2,r3
 800340c:	10800003 	ldbu	r2,0(r2)
 8003410:	10803fcc 	andi	r2,r2,255
 8003414:	0086303a 	nor	r3,zero,r2
 8003418:	00808034 	movhi	r2,512
 800341c:	10801804 	addi	r2,r2,96
 8003420:	10c00035 	stwio	r3,0(r2)
	IOWR(SEG4_BASE, 0, ~SEG_PATTERN[digit2]); // Middle fractional digit
 8003424:	e0fffb17 	ldw	r3,-20(fp)
 8003428:	008200b4 	movhi	r2,2050
 800342c:	10a04204 	addi	r2,r2,-32504
 8003430:	10c5883a 	add	r2,r2,r3
 8003434:	10800003 	ldbu	r2,0(r2)
 8003438:	10803fcc 	andi	r2,r2,255
 800343c:	0086303a 	nor	r3,zero,r2
 8003440:	00808034 	movhi	r2,512
 8003444:	10801c04 	addi	r2,r2,112
 8003448:	10c00035 	stwio	r3,0(r2)
}
 800344c:	e037883a 	mov	sp,fp
 8003450:	dfc00117 	ldw	ra,4(sp)
 8003454:	df000017 	ldw	fp,0(sp)
 8003458:	dec00204 	addi	sp,sp,8
 800345c:	f800283a 	ret

08003460 <model_inference>:

// Model inference function
int model_inference(float *input_data, float *fWei0, float *fBias0, float *fWei2, float *fBias2, float *fWei4, float *fBias4) {
 8003460:	defee304 	addi	sp,sp,-1140
 8003464:	dfc11c15 	stw	ra,1136(sp)
 8003468:	df011b15 	stw	fp,1132(sp)
 800346c:	dc811a15 	stw	r18,1128(sp)
 8003470:	dc411915 	stw	r17,1124(sp)
 8003474:	dc011815 	stw	r16,1120(sp)
 8003478:	df011804 	addi	fp,sp,1120
 800347c:	e13ff815 	stw	r4,-32(fp)
 8003480:	e17ff915 	stw	r5,-28(fp)
 8003484:	e1bffa15 	stw	r6,-24(fp)
 8003488:	e1fffb15 	stw	r7,-20(fp)
    int i, j;

    // First layer with integrated ReLU activation
    float net1[128];

    for (i = 0; i < 128; i++) {
 800348c:	e03eed15 	stw	zero,-1100(fp)
 8003490:	00003e06 	br	800358c <model_inference+0x12c>
        float sum = fBias0[i]; // Start with the bias
 8003494:	e0beed17 	ldw	r2,-1100(fp)
 8003498:	1085883a 	add	r2,r2,r2
 800349c:	1085883a 	add	r2,r2,r2
 80034a0:	1007883a 	mov	r3,r2
 80034a4:	e0bffa17 	ldw	r2,-24(fp)
 80034a8:	1885883a 	add	r2,r3,r2
 80034ac:	10800017 	ldw	r2,0(r2)
 80034b0:	e0bee915 	stw	r2,-1116(fp)
        for (j = 0; j < 784; j++) {
 80034b4:	e03eec15 	stw	zero,-1104(fp)
 80034b8:	00001806 	br	800351c <model_inference+0xbc>
            sum += input_data[j] * fWei0[j * 128 + i];
 80034bc:	e0beec17 	ldw	r2,-1104(fp)
 80034c0:	1085883a 	add	r2,r2,r2
 80034c4:	1085883a 	add	r2,r2,r2
 80034c8:	1007883a 	mov	r3,r2
 80034cc:	e0bff817 	ldw	r2,-32(fp)
 80034d0:	1885883a 	add	r2,r3,r2
 80034d4:	11000017 	ldw	r4,0(r2)
 80034d8:	e0beec17 	ldw	r2,-1104(fp)
 80034dc:	100691fa 	slli	r3,r2,7
 80034e0:	e0beed17 	ldw	r2,-1100(fp)
 80034e4:	1885883a 	add	r2,r3,r2
 80034e8:	1085883a 	add	r2,r2,r2
 80034ec:	1085883a 	add	r2,r2,r2
 80034f0:	1007883a 	mov	r3,r2
 80034f4:	e0bff917 	ldw	r2,-28(fp)
 80034f8:	1885883a 	add	r2,r3,r2
 80034fc:	10800017 	ldw	r2,0(r2)
 8003500:	2087ff32 	custom	252,r3,r4,r2
 8003504:	e0bee917 	ldw	r2,-1116(fp)
 8003508:	10c5ff72 	custom	253,r2,r2,r3
 800350c:	e0bee915 	stw	r2,-1116(fp)
    // First layer with integrated ReLU activation
    float net1[128];

    for (i = 0; i < 128; i++) {
        float sum = fBias0[i]; // Start with the bias
        for (j = 0; j < 784; j++) {
 8003510:	e0beec17 	ldw	r2,-1104(fp)
 8003514:	10800044 	addi	r2,r2,1
 8003518:	e0beec15 	stw	r2,-1104(fp)
 800351c:	e0beec17 	ldw	r2,-1104(fp)
 8003520:	1080c410 	cmplti	r2,r2,784
 8003524:	103fe51e 	bne	r2,zero,80034bc <model_inference+0x5c>
            sum += input_data[j] * fWei0[j * 128 + i];
        }
        // Apply ReLU activation immediately
        net1[i] = sum > 0 ? sum : 0;
 8003528:	e0beed17 	ldw	r2,-1100(fp)
 800352c:	e0bfff15 	stw	r2,-4(fp)
 8003530:	e13ee917 	ldw	r4,-1116(fp)
 8003534:	000b883a 	mov	r5,zero
 8003538:	8004b900 	call	8004b90 <__gtsf2>
 800353c:	10800048 	cmpgei	r2,r2,1
 8003540:	1000011e 	bne	r2,zero,8003548 <model_inference+0xe8>
 8003544:	00000306 	br	8003554 <model_inference+0xf4>
 8003548:	e0fee917 	ldw	r3,-1116(fp)
 800354c:	e0fffe15 	stw	r3,-8(fp)
 8003550:	00000206 	br	800355c <model_inference+0xfc>
 8003554:	0009883a 	mov	r4,zero
 8003558:	e13ffe15 	stw	r4,-8(fp)
 800355c:	e0ffff17 	ldw	r3,-4(fp)
 8003560:	e0ffff17 	ldw	r3,-4(fp)
 8003564:	18c5883a 	add	r2,r3,r3
 8003568:	1085883a 	add	r2,r2,r2
 800356c:	e13ee804 	addi	r4,fp,-1120
 8003570:	1105883a 	add	r2,r2,r4
 8003574:	10800604 	addi	r2,r2,24
 8003578:	e0fffe17 	ldw	r3,-8(fp)
 800357c:	10c00015 	stw	r3,0(r2)
    int i, j;

    // First layer with integrated ReLU activation
    float net1[128];

    for (i = 0; i < 128; i++) {
 8003580:	e0beed17 	ldw	r2,-1100(fp)
 8003584:	10800044 	addi	r2,r2,1
 8003588:	e0beed15 	stw	r2,-1100(fp)
 800358c:	e0beed17 	ldw	r2,-1100(fp)
 8003590:	10802010 	cmplti	r2,r2,128
 8003594:	103fbf1e 	bne	r2,zero,8003494 <model_inference+0x34>
    }

    // Second layer with integrated ReLU activation
    float net2[128];

    for (i = 0; i < 128; i++) {
 8003598:	e03eed15 	stw	zero,-1100(fp)
 800359c:	00003e06 	br	8003698 <model_inference+0x238>
        float sum = fBias2[i]; // Start with the bias
 80035a0:	e0beed17 	ldw	r2,-1100(fp)
 80035a4:	1085883a 	add	r2,r2,r2
 80035a8:	1085883a 	add	r2,r2,r2
 80035ac:	1007883a 	mov	r3,r2
 80035b0:	e0800517 	ldw	r2,20(fp)
 80035b4:	1885883a 	add	r2,r3,r2
 80035b8:	10800017 	ldw	r2,0(r2)
 80035bc:	e0bee815 	stw	r2,-1120(fp)
        for (j = 0; j < 128; j++) {
 80035c0:	e03eec15 	stw	zero,-1104(fp)
 80035c4:	00001806 	br	8003628 <model_inference+0x1c8>
            sum += net1[j] * fWei2[j * 128 + i];
 80035c8:	e0beec17 	ldw	r2,-1104(fp)
 80035cc:	1085883a 	add	r2,r2,r2
 80035d0:	1085883a 	add	r2,r2,r2
 80035d4:	e13ee804 	addi	r4,fp,-1120
 80035d8:	1105883a 	add	r2,r2,r4
 80035dc:	10800604 	addi	r2,r2,24
 80035e0:	11000017 	ldw	r4,0(r2)
 80035e4:	e0beec17 	ldw	r2,-1104(fp)
 80035e8:	100691fa 	slli	r3,r2,7
 80035ec:	e0beed17 	ldw	r2,-1100(fp)
 80035f0:	1885883a 	add	r2,r3,r2
 80035f4:	1085883a 	add	r2,r2,r2
 80035f8:	1085883a 	add	r2,r2,r2
 80035fc:	1007883a 	mov	r3,r2
 8003600:	e0bffb17 	ldw	r2,-20(fp)
 8003604:	1885883a 	add	r2,r3,r2
 8003608:	10800017 	ldw	r2,0(r2)
 800360c:	2087ff32 	custom	252,r3,r4,r2
 8003610:	e0bee817 	ldw	r2,-1120(fp)
 8003614:	10c5ff72 	custom	253,r2,r2,r3
 8003618:	e0bee815 	stw	r2,-1120(fp)
    // Second layer with integrated ReLU activation
    float net2[128];

    for (i = 0; i < 128; i++) {
        float sum = fBias2[i]; // Start with the bias
        for (j = 0; j < 128; j++) {
 800361c:	e0beec17 	ldw	r2,-1104(fp)
 8003620:	10800044 	addi	r2,r2,1
 8003624:	e0beec15 	stw	r2,-1104(fp)
 8003628:	e0beec17 	ldw	r2,-1104(fp)
 800362c:	10802010 	cmplti	r2,r2,128
 8003630:	103fe51e 	bne	r2,zero,80035c8 <model_inference+0x168>
            sum += net1[j] * fWei2[j * 128 + i];
        }
        // Apply ReLU activation immediately
        net2[i] = sum > 0 ? sum : 0;
 8003634:	e0beed17 	ldw	r2,-1100(fp)
 8003638:	e0bffd15 	stw	r2,-12(fp)
 800363c:	e13ee817 	ldw	r4,-1120(fp)
 8003640:	000b883a 	mov	r5,zero
 8003644:	8004b900 	call	8004b90 <__gtsf2>
 8003648:	10800048 	cmpgei	r2,r2,1
 800364c:	1000011e 	bne	r2,zero,8003654 <model_inference+0x1f4>
 8003650:	00000306 	br	8003660 <model_inference+0x200>
 8003654:	e0fee817 	ldw	r3,-1120(fp)
 8003658:	e0fffc15 	stw	r3,-16(fp)
 800365c:	00000206 	br	8003668 <model_inference+0x208>
 8003660:	0009883a 	mov	r4,zero
 8003664:	e13ffc15 	stw	r4,-16(fp)
 8003668:	e0fffd17 	ldw	r3,-12(fp)
 800366c:	e0fffd17 	ldw	r3,-12(fp)
 8003670:	18c5883a 	add	r2,r3,r3
 8003674:	1085883a 	add	r2,r2,r2
 8003678:	e13ee804 	addi	r4,fp,-1120
 800367c:	1105883a 	add	r2,r2,r4
 8003680:	10808604 	addi	r2,r2,536
 8003684:	e0fffc17 	ldw	r3,-16(fp)
 8003688:	10c00015 	stw	r3,0(r2)
    }

    // Second layer with integrated ReLU activation
    float net2[128];

    for (i = 0; i < 128; i++) {
 800368c:	e0beed17 	ldw	r2,-1100(fp)
 8003690:	10800044 	addi	r2,r2,1
 8003694:	e0beed15 	stw	r2,-1100(fp)
 8003698:	e0beed17 	ldw	r2,-1100(fp)
 800369c:	10802010 	cmplti	r2,r2,128
 80036a0:	103fbf1e 	bne	r2,zero,80035a0 <model_inference+0x140>
    }

    // Third layer computations
    float net3[10];
    // Initialize net3 with biases
    memcpy(net3, fBias4, 10 * sizeof(float));
 80036a4:	e13fee04 	addi	r4,fp,-72
 80036a8:	e0c00717 	ldw	r3,28(fp)
 80036ac:	18800017 	ldw	r2,0(r3)
 80036b0:	20800015 	stw	r2,0(r4)
 80036b4:	18800117 	ldw	r2,4(r3)
 80036b8:	20800115 	stw	r2,4(r4)
 80036bc:	18800217 	ldw	r2,8(r3)
 80036c0:	20800215 	stw	r2,8(r4)
 80036c4:	18800317 	ldw	r2,12(r3)
 80036c8:	20800315 	stw	r2,12(r4)
 80036cc:	18800417 	ldw	r2,16(r3)
 80036d0:	20800415 	stw	r2,16(r4)
 80036d4:	18800517 	ldw	r2,20(r3)
 80036d8:	20800515 	stw	r2,20(r4)
 80036dc:	18800617 	ldw	r2,24(r3)
 80036e0:	20800615 	stw	r2,24(r4)
 80036e4:	18800717 	ldw	r2,28(r3)
 80036e8:	20800715 	stw	r2,28(r4)
 80036ec:	18800817 	ldw	r2,32(r3)
 80036f0:	20800815 	stw	r2,32(r4)
 80036f4:	18800917 	ldw	r2,36(r3)
 80036f8:	20800915 	stw	r2,36(r4)

    // Compute net3
    for (i = 0; i < 10; i++) {
 80036fc:	e03eed15 	stw	zero,-1100(fp)
 8003700:	00002e06 	br	80037bc <model_inference+0x35c>
        for (j = 0; j < 128; j++) {
 8003704:	e03eec15 	stw	zero,-1104(fp)
 8003708:	00002606 	br	80037a4 <model_inference+0x344>
            net3[i] += net2[j] * fWei4[j * 10 + i];
 800370c:	e43eed17 	ldw	r16,-1100(fp)
 8003710:	e0beed17 	ldw	r2,-1100(fp)
 8003714:	1085883a 	add	r2,r2,r2
 8003718:	1085883a 	add	r2,r2,r2
 800371c:	e13ee804 	addi	r4,fp,-1120
 8003720:	1105883a 	add	r2,r2,r4
 8003724:	10810604 	addi	r2,r2,1048
 8003728:	14400017 	ldw	r17,0(r2)
 800372c:	e0beec17 	ldw	r2,-1104(fp)
 8003730:	1085883a 	add	r2,r2,r2
 8003734:	1085883a 	add	r2,r2,r2
 8003738:	e0fee804 	addi	r3,fp,-1120
 800373c:	10c5883a 	add	r2,r2,r3
 8003740:	10808604 	addi	r2,r2,536
 8003744:	14800017 	ldw	r18,0(r2)
 8003748:	e13eec17 	ldw	r4,-1104(fp)
 800374c:	01400284 	movi	r5,10
 8003750:	8005e7c0 	call	8005e7c <__mulsi3>
 8003754:	1007883a 	mov	r3,r2
 8003758:	e0beed17 	ldw	r2,-1100(fp)
 800375c:	1885883a 	add	r2,r3,r2
 8003760:	1085883a 	add	r2,r2,r2
 8003764:	1085883a 	add	r2,r2,r2
 8003768:	1007883a 	mov	r3,r2
 800376c:	e0800617 	ldw	r2,24(fp)
 8003770:	1885883a 	add	r2,r3,r2
 8003774:	10800017 	ldw	r2,0(r2)
 8003778:	9085ff32 	custom	252,r2,r18,r2
 800377c:	8887ff72 	custom	253,r3,r17,r2
 8003780:	8405883a 	add	r2,r16,r16
 8003784:	1085883a 	add	r2,r2,r2
 8003788:	e13ee804 	addi	r4,fp,-1120
 800378c:	1105883a 	add	r2,r2,r4
 8003790:	10810604 	addi	r2,r2,1048
 8003794:	10c00015 	stw	r3,0(r2)
    // Initialize net3 with biases
    memcpy(net3, fBias4, 10 * sizeof(float));

    // Compute net3
    for (i = 0; i < 10; i++) {
        for (j = 0; j < 128; j++) {
 8003798:	e0beec17 	ldw	r2,-1104(fp)
 800379c:	10800044 	addi	r2,r2,1
 80037a0:	e0beec15 	stw	r2,-1104(fp)
 80037a4:	e0beec17 	ldw	r2,-1104(fp)
 80037a8:	10802010 	cmplti	r2,r2,128
 80037ac:	103fd71e 	bne	r2,zero,800370c <model_inference+0x2ac>
    float net3[10];
    // Initialize net3 with biases
    memcpy(net3, fBias4, 10 * sizeof(float));

    // Compute net3
    for (i = 0; i < 10; i++) {
 80037b0:	e0beed17 	ldw	r2,-1100(fp)
 80037b4:	10800044 	addi	r2,r2,1
 80037b8:	e0beed15 	stw	r2,-1100(fp)
 80037bc:	e0beed17 	ldw	r2,-1100(fp)
 80037c0:	10800290 	cmplti	r2,r2,10
 80037c4:	103fcf1e 	bne	r2,zero,8003704 <model_inference+0x2a4>
            net3[i] += net2[j] * fWei4[j * 10 + i];
        }
    }

    // Apply Softmax activation
    Softmax(net3, 10);
 80037c8:	e13fee04 	addi	r4,fp,-72
 80037cc:	01400284 	movi	r5,10
 80037d0:	8002fe40 	call	8002fe4 <Softmax>

    // Find the predicted label
    int predicted_label = 0;
 80037d4:	e03eeb15 	stw	zero,-1108(fp)
    float max_prob = net3[0];
 80037d8:	e0bfee17 	ldw	r2,-72(fp)
 80037dc:	e0beea15 	stw	r2,-1112(fp)
    for (i = 1; i < 10; i++) {
 80037e0:	00800044 	movi	r2,1
 80037e4:	e0beed15 	stw	r2,-1100(fp)
 80037e8:	00001a06 	br	8003854 <model_inference+0x3f4>
        if (net3[i] > max_prob) {
 80037ec:	e0beed17 	ldw	r2,-1100(fp)
 80037f0:	1085883a 	add	r2,r2,r2
 80037f4:	1085883a 	add	r2,r2,r2
 80037f8:	e0fee804 	addi	r3,fp,-1120
 80037fc:	10c5883a 	add	r2,r2,r3
 8003800:	10810604 	addi	r2,r2,1048
 8003804:	10800017 	ldw	r2,0(r2)
 8003808:	1009883a 	mov	r4,r2
 800380c:	e17eea17 	ldw	r5,-1112(fp)
 8003810:	8004b900 	call	8004b90 <__gtsf2>
 8003814:	10800048 	cmpgei	r2,r2,1
 8003818:	1000011e 	bne	r2,zero,8003820 <model_inference+0x3c0>
 800381c:	00000a06 	br	8003848 <model_inference+0x3e8>
            max_prob = net3[i];
 8003820:	e0beed17 	ldw	r2,-1100(fp)
 8003824:	1085883a 	add	r2,r2,r2
 8003828:	1085883a 	add	r2,r2,r2
 800382c:	e13ee804 	addi	r4,fp,-1120
 8003830:	1105883a 	add	r2,r2,r4
 8003834:	10810604 	addi	r2,r2,1048
 8003838:	10800017 	ldw	r2,0(r2)
 800383c:	e0beea15 	stw	r2,-1112(fp)
            predicted_label = i;
 8003840:	e0beed17 	ldw	r2,-1100(fp)
 8003844:	e0beeb15 	stw	r2,-1108(fp)
    Softmax(net3, 10);

    // Find the predicted label
    int predicted_label = 0;
    float max_prob = net3[0];
    for (i = 1; i < 10; i++) {
 8003848:	e0beed17 	ldw	r2,-1100(fp)
 800384c:	10800044 	addi	r2,r2,1
 8003850:	e0beed15 	stw	r2,-1100(fp)
 8003854:	e0beed17 	ldw	r2,-1100(fp)
 8003858:	10800290 	cmplti	r2,r2,10
 800385c:	103fe31e 	bne	r2,zero,80037ec <model_inference+0x38c>
//    for (i = 0; i < 10; i++) {
//        printf("%.6f ", net3[i]);
//    }
//    printf("\nPredicted label: %d\n", predicted_label);

    display_probability_to_segments(net3[predicted_label]);
 8003860:	e0beeb17 	ldw	r2,-1108(fp)
 8003864:	1085883a 	add	r2,r2,r2
 8003868:	1085883a 	add	r2,r2,r2
 800386c:	e0fee804 	addi	r3,fp,-1120
 8003870:	10c5883a 	add	r2,r2,r3
 8003874:	10810604 	addi	r2,r2,1048
 8003878:	10800017 	ldw	r2,0(r2)
 800387c:	1009883a 	mov	r4,r2
 8003880:	8004dac0 	call	8004dac <__extendsfdf2>
 8003884:	100b883a 	mov	r5,r2
 8003888:	180d883a 	mov	r6,r3
 800388c:	2809883a 	mov	r4,r5
 8003890:	300b883a 	mov	r5,r6
 8003894:	80033440 	call	8003344 <display_probability_to_segments>

    return predicted_label;
 8003898:	e0beeb17 	ldw	r2,-1108(fp)
}
 800389c:	e037883a 	mov	sp,fp
 80038a0:	dfc00417 	ldw	ra,16(sp)
 80038a4:	df000317 	ldw	fp,12(sp)
 80038a8:	dc800217 	ldw	r18,8(sp)
 80038ac:	dc400117 	ldw	r17,4(sp)
 80038b0:	dc000017 	ldw	r16,0(sp)
 80038b4:	dec00504 	addi	sp,sp,20
 80038b8:	f800283a 	ret

080038bc <main>:

int main() {
 80038bc:	defcb304 	addi	sp,sp,-3380
 80038c0:	dfc34c15 	stw	ra,3376(sp)
 80038c4:	df034b15 	stw	fp,3372(sp)
 80038c8:	dc434a15 	stw	r17,3368(sp)
 80038cc:	dc034915 	stw	r16,3364(sp)
 80038d0:	df034904 	addi	fp,sp,3364
    tAdafruit_GFX LTM;   /* Initialize Adafruit_GFX for LTM display */
    int i, j, dx, dy;
    unsigned int button_state;
    float normalized_frame[28 * 28]; // 28x28 normalized frame
    printf("LTM Touch demo!\n");
 80038d4:	010200b4 	movhi	r4,2050
 80038d8:	21206904 	addi	r4,r4,-32348
 80038dc:	80088880 	call	8008888 <puts>
    DoEnablePIOint();
 80038e0:	8002b4c0 	call	8002b4c <DoEnablePIOint>
    Adafruit_GFX_init(&LTM, 800, 480, 0, LTMDisp); /* Initialize LTM */
 80038e4:	008200b4 	movhi	r2,2050
 80038e8:	10aaf204 	addi	r2,r2,-21560
 80038ec:	e13cdd04 	addi	r4,fp,-3212
 80038f0:	d8800015 	stw	r2,0(sp)
 80038f4:	0140c804 	movi	r5,800
 80038f8:	01807804 	movi	r6,480
 80038fc:	000f883a 	mov	r7,zero
 8003900:	80001ec0 	call	80001ec <Adafruit_GFX_init>

    /* Set LTM_MM base address */
    IOWR(LTM_MM_IF_BASE, 0, &LTMDisp[0]); /* Set LTM display buffer */
 8003904:	00c200b4 	movhi	r3,2050
 8003908:	18eaf204 	addi	r3,r3,-21560
 800390c:	00802034 	movhi	r2,128
 8003910:	10840004 	addi	r2,r2,4096
 8003914:	10c00035 	stwio	r3,0(r2)
    IOWR(LTM_MM_IF_BASE, 2, 1);           /* Enable LTM */
 8003918:	00c02034 	movhi	r3,128
 800391c:	18c40204 	addi	r3,r3,4104
 8003920:	00800044 	movi	r2,1
 8003924:	18800035 	stwio	r2,0(r3)

    OLED_Clear(&LTM); /* Clear LTM display */
 8003928:	e13cdd04 	addi	r4,fp,-3212
 800392c:	80026100 	call	8002610 <OLED_Clear>

    const char *weight_files[] = {
        "/mnt/rozipfs/Dense_0_weight.bin",
        "/mnt/rozipfs/Dense_2_weight.bin",
        "/mnt/rozipfs/Dense_4_weight.bin"
    };
 8003930:	008200b4 	movhi	r2,2050
 8003934:	10a06d04 	addi	r2,r2,-32332
 8003938:	e0bff515 	stw	r2,-44(fp)
 800393c:	008200b4 	movhi	r2,2050
 8003940:	10a07504 	addi	r2,r2,-32300
 8003944:	e0bff615 	stw	r2,-40(fp)
 8003948:	008200b4 	movhi	r2,2050
 800394c:	10a07d04 	addi	r2,r2,-32268
 8003950:	e0bff715 	stw	r2,-36(fp)

    const char *bias_files[] = {
        "/mnt/rozipfs/Dense_0_bias.bin",
        "/mnt/rozipfs/Dense_2_bias.bin",
        "/mnt/rozipfs/Dense_4_bias.bin"
    };
 8003954:	008200b4 	movhi	r2,2050
 8003958:	10a08504 	addi	r2,r2,-32236
 800395c:	e0bff815 	stw	r2,-32(fp)
 8003960:	008200b4 	movhi	r2,2050
 8003964:	10a08d04 	addi	r2,r2,-32204
 8003968:	e0bff915 	stw	r2,-28(fp)
 800396c:	008200b4 	movhi	r2,2050
 8003970:	10a09504 	addi	r2,r2,-32172
 8003974:	e0bffa15 	stw	r2,-24(fp)

    // Read all weights and biases at the beginning
    printf("Loading weights and biases...\n");
 8003978:	010200b4 	movhi	r4,2050
 800397c:	21209d04 	addi	r4,r4,-32140
 8003980:	80088880 	call	8008888 <puts>
    float *fWei0 = read_bin_file(weight_files[0], 784 * 128);
 8003984:	e13ff517 	ldw	r4,-44(fp)
 8003988:	014000b4 	movhi	r5,2
 800398c:	29620004 	addi	r5,r5,-30720
 8003990:	8002c9c0 	call	8002c9c <read_bin_file>
 8003994:	e0bcd415 	stw	r2,-3248(fp)
    float *fBias0 = read_bin_file(bias_files[0], 128);
 8003998:	e13ff817 	ldw	r4,-32(fp)
 800399c:	01402004 	movi	r5,128
 80039a0:	8002c9c0 	call	8002c9c <read_bin_file>
 80039a4:	e0bcd315 	stw	r2,-3252(fp)
    float *fWei2 = read_bin_file(weight_files[1], 128 * 128);
 80039a8:	e13ff617 	ldw	r4,-40(fp)
 80039ac:	01500004 	movi	r5,16384
 80039b0:	8002c9c0 	call	8002c9c <read_bin_file>
 80039b4:	e0bcd215 	stw	r2,-3256(fp)
    float *fBias2 = read_bin_file(bias_files[1], 128);
 80039b8:	e13ff917 	ldw	r4,-28(fp)
 80039bc:	01402004 	movi	r5,128
 80039c0:	8002c9c0 	call	8002c9c <read_bin_file>
 80039c4:	e0bcd115 	stw	r2,-3260(fp)
    float *fWei4 = read_bin_file(weight_files[2], 128 * 10);
 80039c8:	e13ff717 	ldw	r4,-36(fp)
 80039cc:	01414004 	movi	r5,1280
 80039d0:	8002c9c0 	call	8002c9c <read_bin_file>
 80039d4:	e0bcd015 	stw	r2,-3264(fp)
    float *fBias4 = read_bin_file(bias_files[2], 10);
 80039d8:	e13ffa17 	ldw	r4,-24(fp)
 80039dc:	01400284 	movi	r5,10
 80039e0:	8002c9c0 	call	8002c9c <read_bin_file>
 80039e4:	e0bccf15 	stw	r2,-3268(fp)

    printf("Weights and biases loaded successfully.\n");
 80039e8:	010200b4 	movhi	r4,2050
 80039ec:	2120a504 	addi	r4,r4,-32108
 80039f0:	80088880 	call	8008888 <puts>

    printf("Starting DNN model inference from flash...\n");
 80039f4:	010200b4 	movhi	r4,2050
 80039f8:	2120af04 	addi	r4,r4,-32068
 80039fc:	80088880 	call	8008888 <puts>
    IOWR(SEG0_BASE, 0, ~SEG_PATTERN[16]);
 8003a00:	008200b4 	movhi	r2,2050
 8003a04:	10a04204 	addi	r2,r2,-32504
 8003a08:	10800403 	ldbu	r2,16(r2)
 8003a0c:	10803fcc 	andi	r2,r2,255
 8003a10:	0086303a 	nor	r3,zero,r2
 8003a14:	00808034 	movhi	r2,512
 8003a18:	10802c04 	addi	r2,r2,176
 8003a1c:	10c00035 	stwio	r3,0(r2)
    IOWR(SEG1_BASE, 0, ~SEG_PATTERN[16]);
 8003a20:	008200b4 	movhi	r2,2050
 8003a24:	10a04204 	addi	r2,r2,-32504
 8003a28:	10800403 	ldbu	r2,16(r2)
 8003a2c:	10803fcc 	andi	r2,r2,255
 8003a30:	0086303a 	nor	r3,zero,r2
 8003a34:	00808034 	movhi	r2,512
 8003a38:	10802804 	addi	r2,r2,160
 8003a3c:	10c00035 	stwio	r3,0(r2)
    IOWR(SEG2_BASE, 0, ~SEG_PATTERN[16]);
 8003a40:	008200b4 	movhi	r2,2050
 8003a44:	10a04204 	addi	r2,r2,-32504
 8003a48:	10800403 	ldbu	r2,16(r2)
 8003a4c:	10803fcc 	andi	r2,r2,255
 8003a50:	0086303a 	nor	r3,zero,r2
 8003a54:	00808034 	movhi	r2,512
 8003a58:	10802404 	addi	r2,r2,144
 8003a5c:	10c00035 	stwio	r3,0(r2)
    IOWR(SEG3_BASE, 0, ~SEG_PATTERN[16]);
 8003a60:	008200b4 	movhi	r2,2050
 8003a64:	10a04204 	addi	r2,r2,-32504
 8003a68:	10800403 	ldbu	r2,16(r2)
 8003a6c:	10803fcc 	andi	r2,r2,255
 8003a70:	0086303a 	nor	r3,zero,r2
 8003a74:	00808034 	movhi	r2,512
 8003a78:	10802004 	addi	r2,r2,128
 8003a7c:	10c00035 	stwio	r3,0(r2)
    IOWR(SEG4_BASE, 0, ~SEG_PATTERN[16]);
 8003a80:	008200b4 	movhi	r2,2050
 8003a84:	10a04204 	addi	r2,r2,-32504
 8003a88:	10800403 	ldbu	r2,16(r2)
 8003a8c:	10803fcc 	andi	r2,r2,255
 8003a90:	0086303a 	nor	r3,zero,r2
 8003a94:	00808034 	movhi	r2,512
 8003a98:	10801c04 	addi	r2,r2,112
 8003a9c:	10c00035 	stwio	r3,0(r2)
	IOWR(SEG5_BASE, 0, ~SEG_PATTERN[16]);
 8003aa0:	008200b4 	movhi	r2,2050
 8003aa4:	10a04204 	addi	r2,r2,-32504
 8003aa8:	10800403 	ldbu	r2,16(r2)
 8003aac:	10803fcc 	andi	r2,r2,255
 8003ab0:	0086303a 	nor	r3,zero,r2
 8003ab4:	00808034 	movhi	r2,512
 8003ab8:	10801804 	addi	r2,r2,96
 8003abc:	10c00035 	stwio	r3,0(r2)
	IOWR(SEG6_BASE, 0, ~SEG_PATTERN[16]);
 8003ac0:	008200b4 	movhi	r2,2050
 8003ac4:	10a04204 	addi	r2,r2,-32504
 8003ac8:	10800403 	ldbu	r2,16(r2)
 8003acc:	10803fcc 	andi	r2,r2,255
 8003ad0:	0086303a 	nor	r3,zero,r2
 8003ad4:	00808034 	movhi	r2,512
 8003ad8:	10801404 	addi	r2,r2,80
 8003adc:	10c00035 	stwio	r3,0(r2)
	IOWR(SEG7_BASE, 0, ~SEG_PATTERN[16]);
 8003ae0:	008200b4 	movhi	r2,2050
 8003ae4:	10a04204 	addi	r2,r2,-32504
 8003ae8:	10800403 	ldbu	r2,16(r2)
 8003aec:	10803fcc 	andi	r2,r2,255
 8003af0:	0086303a 	nor	r3,zero,r2
 8003af4:	00808034 	movhi	r2,512
 8003af8:	10801004 	addi	r2,r2,64
 8003afc:	10c00035 	stwio	r3,0(r2)

    alt_timestamp_start();
 8003b00:	80149d80 	call	80149d8 <alt_timestamp_start>
    unsigned long clock_freq = alt_timestamp_freq();
 8003b04:	8014b180 	call	8014b18 <alt_timestamp_freq>
 8003b08:	e0bcce15 	stw	r2,-3272(fp)
    unsigned long start, end;

    const int X_SCALE_NUM = 7;
 8003b0c:	008001c4 	movi	r2,7
 8003b10:	e0bccb15 	stw	r2,-3284(fp)
	const int X_SCALE_DEN = 200;  // Simplified from 28/800
 8003b14:	00803204 	movi	r2,200
 8003b18:	e0bcca15 	stw	r2,-3288(fp)
	const int Y_SCALE_NUM = 7;
 8003b1c:	008001c4 	movi	r2,7
 8003b20:	e0bcc915 	stw	r2,-3292(fp)
	const int Y_SCALE_DEN = 120;  // Simplified from 28/480
 8003b24:	00801e04 	movi	r2,120
 8003b28:	e0bcc815 	stw	r2,-3296(fp)
 8003b2c:	00000006 	br	8003b30 <main+0x274>

    while (1) {
        button_state = IORD(BUTTON_BASE, 3);
 8003b30:	00808034 	movhi	r2,512
 8003b34:	10803304 	addi	r2,r2,204
 8003b38:	10800037 	ldwio	r2,0(r2)
 8003b3c:	e0bcd815 	stw	r2,-3232(fp)

        if (button_state == 0x2) {
 8003b40:	e0bcd817 	ldw	r2,-3232(fp)
 8003b44:	10800098 	cmpnei	r2,r2,2
 8003b48:	1000471e 	bne	r2,zero,8003c68 <main+0x3ac>
            OLED_Clear(&LTM);
 8003b4c:	e13cdd04 	addi	r4,fp,-3212
 8003b50:	80026100 	call	8002610 <OLED_Clear>
            stack_clear();
 8003b54:	8002a500 	call	8002a50 <stack_clear>
            fifo_clear();
 8003b58:	8002a2c0 	call	8002a2c <fifo_clear>
            IOWR(BUTTON_BASE, 3, 0);
 8003b5c:	00808034 	movhi	r2,512
 8003b60:	10803304 	addi	r2,r2,204
 8003b64:	10000035 	stwio	zero,0(r2)
            IOWR(SEG0_BASE, 0, ~SEG_PATTERN[16]);
 8003b68:	008200b4 	movhi	r2,2050
 8003b6c:	10a04204 	addi	r2,r2,-32504
 8003b70:	10800403 	ldbu	r2,16(r2)
 8003b74:	10803fcc 	andi	r2,r2,255
 8003b78:	0086303a 	nor	r3,zero,r2
 8003b7c:	00808034 	movhi	r2,512
 8003b80:	10802c04 	addi	r2,r2,176
 8003b84:	10c00035 	stwio	r3,0(r2)
			IOWR(SEG1_BASE, 0, ~SEG_PATTERN[16]);
 8003b88:	008200b4 	movhi	r2,2050
 8003b8c:	10a04204 	addi	r2,r2,-32504
 8003b90:	10800403 	ldbu	r2,16(r2)
 8003b94:	10803fcc 	andi	r2,r2,255
 8003b98:	0086303a 	nor	r3,zero,r2
 8003b9c:	00808034 	movhi	r2,512
 8003ba0:	10802804 	addi	r2,r2,160
 8003ba4:	10c00035 	stwio	r3,0(r2)
			IOWR(SEG2_BASE, 0, ~SEG_PATTERN[16]);
 8003ba8:	008200b4 	movhi	r2,2050
 8003bac:	10a04204 	addi	r2,r2,-32504
 8003bb0:	10800403 	ldbu	r2,16(r2)
 8003bb4:	10803fcc 	andi	r2,r2,255
 8003bb8:	0086303a 	nor	r3,zero,r2
 8003bbc:	00808034 	movhi	r2,512
 8003bc0:	10802404 	addi	r2,r2,144
 8003bc4:	10c00035 	stwio	r3,0(r2)
			IOWR(SEG3_BASE, 0, ~SEG_PATTERN[16]);
 8003bc8:	008200b4 	movhi	r2,2050
 8003bcc:	10a04204 	addi	r2,r2,-32504
 8003bd0:	10800403 	ldbu	r2,16(r2)
 8003bd4:	10803fcc 	andi	r2,r2,255
 8003bd8:	0086303a 	nor	r3,zero,r2
 8003bdc:	00808034 	movhi	r2,512
 8003be0:	10802004 	addi	r2,r2,128
 8003be4:	10c00035 	stwio	r3,0(r2)
			IOWR(SEG4_BASE, 0, ~SEG_PATTERN[16]);
 8003be8:	008200b4 	movhi	r2,2050
 8003bec:	10a04204 	addi	r2,r2,-32504
 8003bf0:	10800403 	ldbu	r2,16(r2)
 8003bf4:	10803fcc 	andi	r2,r2,255
 8003bf8:	0086303a 	nor	r3,zero,r2
 8003bfc:	00808034 	movhi	r2,512
 8003c00:	10801c04 	addi	r2,r2,112
 8003c04:	10c00035 	stwio	r3,0(r2)
			IOWR(SEG5_BASE, 0, ~SEG_PATTERN[16]);
 8003c08:	008200b4 	movhi	r2,2050
 8003c0c:	10a04204 	addi	r2,r2,-32504
 8003c10:	10800403 	ldbu	r2,16(r2)
 8003c14:	10803fcc 	andi	r2,r2,255
 8003c18:	0086303a 	nor	r3,zero,r2
 8003c1c:	00808034 	movhi	r2,512
 8003c20:	10801804 	addi	r2,r2,96
 8003c24:	10c00035 	stwio	r3,0(r2)
			IOWR(SEG6_BASE, 0, ~SEG_PATTERN[16]);
 8003c28:	008200b4 	movhi	r2,2050
 8003c2c:	10a04204 	addi	r2,r2,-32504
 8003c30:	10800403 	ldbu	r2,16(r2)
 8003c34:	10803fcc 	andi	r2,r2,255
 8003c38:	0086303a 	nor	r3,zero,r2
 8003c3c:	00808034 	movhi	r2,512
 8003c40:	10801404 	addi	r2,r2,80
 8003c44:	10c00035 	stwio	r3,0(r2)
			IOWR(SEG7_BASE, 0, ~SEG_PATTERN[16]);
 8003c48:	008200b4 	movhi	r2,2050
 8003c4c:	10a04204 	addi	r2,r2,-32504
 8003c50:	10800403 	ldbu	r2,16(r2)
 8003c54:	10803fcc 	andi	r2,r2,255
 8003c58:	0086303a 	nor	r3,zero,r2
 8003c5c:	00808034 	movhi	r2,512
 8003c60:	10801004 	addi	r2,r2,64
 8003c64:	10c00035 	stwio	r3,0(r2)
        }

        if (button_state == 0x4) {
 8003c68:	e0bcd817 	ldw	r2,-3232(fp)
 8003c6c:	10800118 	cmpnei	r2,r2,4
 8003c70:	10006d1e 	bne	r2,zero,8003e28 <main+0x56c>
//                    }
//                }
//            }

            // Convert the 28x28 area into normalized_frame with row-column reversed
            for (i = 0; i < 28; i++) {
 8003c74:	e03cdc15 	stw	zero,-3216(fp)
 8003c78:	00003506 	br	8003d50 <main+0x494>
                int row_start = i * 800;
 8003c7c:	e13cdc17 	ldw	r4,-3216(fp)
 8003c80:	0140c804 	movi	r5,800
 8003c84:	8005e7c0 	call	8005e7c <__mulsi3>
 8003c88:	e0bcc515 	stw	r2,-3308(fp)
                int reversed_i = 27 - i;  // Precompute reversed index
 8003c8c:	00c006c4 	movi	r3,27
 8003c90:	e0bcdc17 	ldw	r2,-3216(fp)
 8003c94:	1885c83a 	sub	r2,r3,r2
 8003c98:	e0bcc415 	stw	r2,-3312(fp)

                for (j = 0; j < 28; j++) {
 8003c9c:	e03cdb15 	stw	zero,-3220(fp)
 8003ca0:	00002506 	br	8003d38 <main+0x47c>
                    unsigned int pixel_value = LTMDisp[row_start + j];
 8003ca4:	e0fcc517 	ldw	r3,-3308(fp)
 8003ca8:	e0bcdb17 	ldw	r2,-3220(fp)
 8003cac:	1885883a 	add	r2,r3,r2
 8003cb0:	00c200b4 	movhi	r3,2050
 8003cb4:	18eaf204 	addi	r3,r3,-21560
 8003cb8:	1085883a 	add	r2,r2,r2
 8003cbc:	1085883a 	add	r2,r2,r2
 8003cc0:	10c5883a 	add	r2,r2,r3
 8003cc4:	10800017 	ldw	r2,0(r2)
 8003cc8:	e0bcc315 	stw	r2,-3316(fp)

                    // Map the pixel value to normalized_value, either 1.0f or 0.0f
                    float normalized_value = (pixel_value == 0xFFFFFF) ? 1.0f : 0.0f;
 8003ccc:	e0fcc317 	ldw	r3,-3316(fp)
 8003cd0:	00804034 	movhi	r2,256
 8003cd4:	10bfffc4 	addi	r2,r2,-1
 8003cd8:	1880031e 	bne	r3,r2,8003ce8 <main+0x42c>
 8003cdc:	008fe034 	movhi	r2,16256
 8003ce0:	e0bfff15 	stw	r2,-4(fp)
 8003ce4:	00000206 	br	8003cf0 <main+0x434>
 8003ce8:	0007883a 	mov	r3,zero
 8003cec:	e0ffff15 	stw	r3,-4(fp)
 8003cf0:	e0bfff17 	ldw	r2,-4(fp)
 8003cf4:	e0bcc215 	stw	r2,-3320(fp)

                    // Store in normalized_frame with row-column reversed
                    normalized_frame[j * 28 + reversed_i] = normalized_value;
 8003cf8:	e13cdb17 	ldw	r4,-3220(fp)
 8003cfc:	01400704 	movi	r5,28
 8003d00:	8005e7c0 	call	8005e7c <__mulsi3>
 8003d04:	1007883a 	mov	r3,r2
 8003d08:	e0bcc417 	ldw	r2,-3312(fp)
 8003d0c:	1885883a 	add	r2,r3,r2
 8003d10:	1085883a 	add	r2,r2,r2
 8003d14:	1085883a 	add	r2,r2,r2
 8003d18:	e0fcba04 	addi	r3,fp,-3352
 8003d1c:	10c5883a 	add	r2,r2,r3
 8003d20:	10c02b04 	addi	r3,r2,172
 8003d24:	e0bcc217 	ldw	r2,-3320(fp)
 8003d28:	18800015 	stw	r2,0(r3)
            // Convert the 28x28 area into normalized_frame with row-column reversed
            for (i = 0; i < 28; i++) {
                int row_start = i * 800;
                int reversed_i = 27 - i;  // Precompute reversed index

                for (j = 0; j < 28; j++) {
 8003d2c:	e0bcdb17 	ldw	r2,-3220(fp)
 8003d30:	10800044 	addi	r2,r2,1
 8003d34:	e0bcdb15 	stw	r2,-3220(fp)
 8003d38:	e0bcdb17 	ldw	r2,-3220(fp)
 8003d3c:	10800710 	cmplti	r2,r2,28
 8003d40:	103fd81e 	bne	r2,zero,8003ca4 <main+0x3e8>
//                    }
//                }
//            }

            // Convert the 28x28 area into normalized_frame with row-column reversed
            for (i = 0; i < 28; i++) {
 8003d44:	e0bcdc17 	ldw	r2,-3216(fp)
 8003d48:	10800044 	addi	r2,r2,1
 8003d4c:	e0bcdc15 	stw	r2,-3216(fp)
 8003d50:	e0bcdc17 	ldw	r2,-3216(fp)
 8003d54:	10800710 	cmplti	r2,r2,28
 8003d58:	103fc81e 	bne	r2,zero,8003c7c <main+0x3c0>
                    normalized_frame[j * 28 + reversed_i] = normalized_value;
                }
            }
            // print_input_data(normalized_frame, 28, 28);
//            printf("Data saved successfully to normalized_frame with row-column reversed.\n");
            start = alt_timestamp();
 8003d5c:	8014a7c0 	call	8014a7c <alt_timestamp>
 8003d60:	e0bccd15 	stw	r2,-3276(fp)
            predicted_label = model_inference(normalized_frame, fWei0, fBias0, fWei2, fBias2, fWei4, fBias4);
 8003d64:	e13ce504 	addi	r4,fp,-3180
 8003d68:	e0bcd117 	ldw	r2,-3260(fp)
 8003d6c:	d8800015 	stw	r2,0(sp)
 8003d70:	e0bcd017 	ldw	r2,-3264(fp)
 8003d74:	d8800115 	stw	r2,4(sp)
 8003d78:	e0bccf17 	ldw	r2,-3268(fp)
 8003d7c:	d8800215 	stw	r2,8(sp)
 8003d80:	e17cd417 	ldw	r5,-3248(fp)
 8003d84:	e1bcd317 	ldw	r6,-3252(fp)
 8003d88:	e1fcd217 	ldw	r7,-3256(fp)
 8003d8c:	80034600 	call	8003460 <model_inference>
 8003d90:	e0bcd515 	stw	r2,-3244(fp)
            end = alt_timestamp();
 8003d94:	8014a7c0 	call	8014a7c <alt_timestamp>
 8003d98:	e0bccc15 	stw	r2,-3280(fp)
            double time_taken = (double)(end - start) / clock_freq;
 8003d9c:	e0fccc17 	ldw	r3,-3280(fp)
 8003da0:	e0bccd17 	ldw	r2,-3276(fp)
 8003da4:	1889c83a 	sub	r4,r3,r2
 8003da8:	8005b9c0 	call	8005b9c <__floatunsidf>
 8003dac:	1021883a 	mov	r16,r2
 8003db0:	1823883a 	mov	r17,r3
 8003db4:	e13cce17 	ldw	r4,-3272(fp)
 8003db8:	8005b9c0 	call	8005b9c <__floatunsidf>
 8003dbc:	100f883a 	mov	r7,r2
 8003dc0:	1811883a 	mov	r8,r3
 8003dc4:	8009883a 	mov	r4,r16
 8003dc8:	880b883a 	mov	r5,r17
 8003dcc:	380d883a 	mov	r6,r7
 8003dd0:	400f883a 	mov	r7,r8
 8003dd4:	80056c80 	call	80056c8 <__divdf3>
 8003dd8:	1009883a 	mov	r4,r2
 8003ddc:	180b883a 	mov	r5,r3
 8003de0:	e13cc615 	stw	r4,-3304(fp)
 8003de4:	e17cc715 	stw	r5,-3300(fp)
//            printf("Time taken: %.6lf seconds\n", time_taken);
            IOWR(SEG6_BASE, 0, ~SEG_PATTERN[predicted_label]);
 8003de8:	e0fcd517 	ldw	r3,-3244(fp)
 8003dec:	008200b4 	movhi	r2,2050
 8003df0:	10a04204 	addi	r2,r2,-32504
 8003df4:	10c5883a 	add	r2,r2,r3
 8003df8:	10800003 	ldbu	r2,0(r2)
 8003dfc:	10803fcc 	andi	r2,r2,255
 8003e00:	0086303a 	nor	r3,zero,r2
 8003e04:	00808034 	movhi	r2,512
 8003e08:	10801404 	addi	r2,r2,80
 8003e0c:	10c00035 	stwio	r3,0(r2)
            display_time_to_segments(time_taken);
 8003e10:	e13cc617 	ldw	r4,-3304(fp)
 8003e14:	e17cc717 	ldw	r5,-3300(fp)
 8003e18:	80031a00 	call	80031a0 <display_time_to_segments>

            IOWR(BUTTON_BASE, 3, 0);
 8003e1c:	00808034 	movhi	r2,512
 8003e20:	10803304 	addi	r2,r2,204
 8003e24:	10000035 	stwio	zero,0(r2)
        }

        // Process data from FIFO
        if (!is_fifo_empty()) {
 8003e28:	80027100 	call	8002710 <is_fifo_empty>
 8003e2c:	1004c03a 	cmpne	r2,r2,zero
 8003e30:	10003d1e 	bne	r2,zero,8003f28 <main+0x66c>
            TouchPoint point = fifo_pop();
 8003e34:	80028580 	call	8002858 <fifo_pop>
 8003e38:	1009883a 	mov	r4,r2
 8003e3c:	180b883a 	mov	r5,r3
 8003e40:	e13ffb15 	stw	r4,-20(fp)
 8003e44:	e17ffc15 	stw	r5,-16(fp)

            int tp_half = TP / 2;
 8003e48:	00800144 	movi	r2,5
 8003e4c:	e0bcc115 	stw	r2,-3324(fp)
            // Display touch point
            for (i = -tp_half; i < tp_half; i++) {
 8003e50:	e0bcc117 	ldw	r2,-3324(fp)
 8003e54:	0085c83a 	sub	r2,zero,r2
 8003e58:	e0bcdc15 	stw	r2,-3216(fp)
 8003e5c:	00002f06 	br	8003f1c <main+0x660>
                int new_x = point.x + i;
 8003e60:	e0fffb17 	ldw	r3,-20(fp)
 8003e64:	e0bcdc17 	ldw	r2,-3216(fp)
 8003e68:	1885883a 	add	r2,r3,r2
 8003e6c:	e0bcc015 	stw	r2,-3328(fp)
                if (new_x < 0 || new_x >= 800) continue;
 8003e70:	e0bcc017 	ldw	r2,-3328(fp)
 8003e74:	1004803a 	cmplt	r2,r2,zero
 8003e78:	1000251e 	bne	r2,zero,8003f10 <main+0x654>
 8003e7c:	e0bcc017 	ldw	r2,-3328(fp)
 8003e80:	1080c808 	cmpgei	r2,r2,800
 8003e84:	1000221e 	bne	r2,zero,8003f10 <main+0x654>

                for (j = -tp_half; j < tp_half; j++) {
 8003e88:	e0bcc117 	ldw	r2,-3324(fp)
 8003e8c:	0085c83a 	sub	r2,zero,r2
 8003e90:	e0bcdb15 	stw	r2,-3220(fp)
 8003e94:	00001b06 	br	8003f04 <main+0x648>
                    int new_y = point.y + j;
 8003e98:	e0fffc17 	ldw	r3,-16(fp)
 8003e9c:	e0bcdb17 	ldw	r2,-3220(fp)
 8003ea0:	1885883a 	add	r2,r3,r2
 8003ea4:	e0bcbf15 	stw	r2,-3332(fp)
                    if (new_y < 0 || new_y >= 480) continue;
 8003ea8:	e0bcbf17 	ldw	r2,-3332(fp)
 8003eac:	1004803a 	cmplt	r2,r2,zero
 8003eb0:	1000111e 	bne	r2,zero,8003ef8 <main+0x63c>
 8003eb4:	e0bcbf17 	ldw	r2,-3332(fp)
 8003eb8:	10807808 	cmpgei	r2,r2,480
 8003ebc:	10000e1e 	bne	r2,zero,8003ef8 <main+0x63c>

                    LTMDisp[new_y * 800 + new_x] = 0xffffff;
 8003ec0:	e13cbf17 	ldw	r4,-3332(fp)
 8003ec4:	0140c804 	movi	r5,800
 8003ec8:	8005e7c0 	call	8005e7c <__mulsi3>
 8003ecc:	1007883a 	mov	r3,r2
 8003ed0:	e0bcc017 	ldw	r2,-3328(fp)
 8003ed4:	1885883a 	add	r2,r3,r2
 8003ed8:	00c200b4 	movhi	r3,2050
 8003edc:	18eaf204 	addi	r3,r3,-21560
 8003ee0:	1085883a 	add	r2,r2,r2
 8003ee4:	1085883a 	add	r2,r2,r2
 8003ee8:	10c7883a 	add	r3,r2,r3
 8003eec:	00804034 	movhi	r2,256
 8003ef0:	10bfffc4 	addi	r2,r2,-1
 8003ef4:	18800015 	stw	r2,0(r3)
            // Display touch point
            for (i = -tp_half; i < tp_half; i++) {
                int new_x = point.x + i;
                if (new_x < 0 || new_x >= 800) continue;

                for (j = -tp_half; j < tp_half; j++) {
 8003ef8:	e0bcdb17 	ldw	r2,-3220(fp)
 8003efc:	10800044 	addi	r2,r2,1
 8003f00:	e0bcdb15 	stw	r2,-3220(fp)
 8003f04:	e0fcdb17 	ldw	r3,-3220(fp)
 8003f08:	e0bcc117 	ldw	r2,-3324(fp)
 8003f0c:	18bfe216 	blt	r3,r2,8003e98 <main+0x5dc>
        if (!is_fifo_empty()) {
            TouchPoint point = fifo_pop();

            int tp_half = TP / 2;
            // Display touch point
            for (i = -tp_half; i < tp_half; i++) {
 8003f10:	e0bcdc17 	ldw	r2,-3216(fp)
 8003f14:	10800044 	addi	r2,r2,1
 8003f18:	e0bcdc15 	stw	r2,-3216(fp)
 8003f1c:	e0fcdc17 	ldw	r3,-3216(fp)
 8003f20:	e0bcc117 	ldw	r2,-3324(fp)
 8003f24:	18bfce16 	blt	r3,r2,8003e60 <main+0x5a4>
                }
            }
        }

        // Process all touch points
		if (!is_stack_empty()) {
 8003f28:	800275c0 	call	800275c <is_stack_empty>
 8003f2c:	1004c03a 	cmpne	r2,r2,zero
 8003f30:	103eff1e 	bne	r2,zero,8003b30 <main+0x274>
			TouchPoint point = stack_pop();
 8003f34:	80029b00 	call	80029b0 <stack_pop>
 8003f38:	1009883a 	mov	r4,r2
 8003f3c:	180b883a 	mov	r5,r3
 8003f40:	e13ffd15 	stw	r4,-12(fp)
 8003f44:	e17ffe15 	stw	r5,-8(fp)

			// Map the coordinates to a 28x28 area using simplified fractions
			int mapped_x = (point.x * X_SCALE_NUM) / X_SCALE_DEN;
 8003f48:	e13ffd17 	ldw	r4,-12(fp)
 8003f4c:	e17ccb17 	ldw	r5,-3284(fp)
 8003f50:	8005e7c0 	call	8005e7c <__mulsi3>
 8003f54:	1009883a 	mov	r4,r2
 8003f58:	e17cca17 	ldw	r5,-3288(fp)
 8003f5c:	8005dac0 	call	8005dac <__divsi3>
 8003f60:	e0bcbe15 	stw	r2,-3336(fp)
			int mapped_y = (point.y * Y_SCALE_NUM) / Y_SCALE_DEN;
 8003f64:	e13ffe17 	ldw	r4,-8(fp)
 8003f68:	e17cc917 	ldw	r5,-3292(fp)
 8003f6c:	8005e7c0 	call	8005e7c <__mulsi3>
 8003f70:	1009883a 	mov	r4,r2
 8003f74:	e17cc817 	ldw	r5,-3296(fp)
 8003f78:	8005dac0 	call	8005dac <__divsi3>
 8003f7c:	e0bcbd15 	stw	r2,-3340(fp)

			// Draw a 2x2 square around the mapped point
			for (dy = -1; dy <= 1; dy++) {
 8003f80:	00bfffc4 	movi	r2,-1
 8003f84:	e0bcd915 	stw	r2,-3228(fp)
 8003f88:	00002f06 	br	8004048 <main+0x78c>
				int new_y = mapped_y + dy;
 8003f8c:	e0fcbd17 	ldw	r3,-3340(fp)
 8003f90:	e0bcd917 	ldw	r2,-3228(fp)
 8003f94:	1885883a 	add	r2,r3,r2
 8003f98:	e0bcbc15 	stw	r2,-3344(fp)
				if (new_y < 0 || new_y >= 28) continue;
 8003f9c:	e0bcbc17 	ldw	r2,-3344(fp)
 8003fa0:	1004803a 	cmplt	r2,r2,zero
 8003fa4:	1000251e 	bne	r2,zero,800403c <main+0x780>
 8003fa8:	e0bcbc17 	ldw	r2,-3344(fp)
 8003fac:	10800708 	cmpgei	r2,r2,28
 8003fb0:	1000221e 	bne	r2,zero,800403c <main+0x780>

				int row_start = new_y * 800;  // Precompute row start index
 8003fb4:	e13cbc17 	ldw	r4,-3344(fp)
 8003fb8:	0140c804 	movi	r5,800
 8003fbc:	8005e7c0 	call	8005e7c <__mulsi3>
 8003fc0:	e0bcbb15 	stw	r2,-3348(fp)

				for (dx = -1; dx <= 1; dx++) {
 8003fc4:	00bfffc4 	movi	r2,-1
 8003fc8:	e0bcda15 	stw	r2,-3224(fp)
 8003fcc:	00001806 	br	8004030 <main+0x774>
					int new_x = mapped_x + dx;
 8003fd0:	e0fcbe17 	ldw	r3,-3336(fp)
 8003fd4:	e0bcda17 	ldw	r2,-3224(fp)
 8003fd8:	1885883a 	add	r2,r3,r2
 8003fdc:	e0bcba15 	stw	r2,-3352(fp)
					if (new_x < 0 || new_x >= 28) continue;
 8003fe0:	e0bcba17 	ldw	r2,-3352(fp)
 8003fe4:	1004803a 	cmplt	r2,r2,zero
 8003fe8:	10000e1e 	bne	r2,zero,8004024 <main+0x768>
 8003fec:	e0bcba17 	ldw	r2,-3352(fp)
 8003ff0:	10800708 	cmpgei	r2,r2,28
 8003ff4:	10000b1e 	bne	r2,zero,8004024 <main+0x768>

//					if (dx!=0){
//						LTMDisp[row_start + new_x] = 0xF0F0F0;
//					} else
					LTMDisp[row_start + new_x] = 0xFFFFFF;
 8003ff8:	e0fcbb17 	ldw	r3,-3348(fp)
 8003ffc:	e0bcba17 	ldw	r2,-3352(fp)
 8004000:	1885883a 	add	r2,r3,r2
 8004004:	00c200b4 	movhi	r3,2050
 8004008:	18eaf204 	addi	r3,r3,-21560
 800400c:	1085883a 	add	r2,r2,r2
 8004010:	1085883a 	add	r2,r2,r2
 8004014:	10c7883a 	add	r3,r2,r3
 8004018:	00804034 	movhi	r2,256
 800401c:	10bfffc4 	addi	r2,r2,-1
 8004020:	18800015 	stw	r2,0(r3)
				int new_y = mapped_y + dy;
				if (new_y < 0 || new_y >= 28) continue;

				int row_start = new_y * 800;  // Precompute row start index

				for (dx = -1; dx <= 1; dx++) {
 8004024:	e0bcda17 	ldw	r2,-3224(fp)
 8004028:	10800044 	addi	r2,r2,1
 800402c:	e0bcda15 	stw	r2,-3224(fp)
 8004030:	e0bcda17 	ldw	r2,-3224(fp)
 8004034:	10800090 	cmplti	r2,r2,2
 8004038:	103fe51e 	bne	r2,zero,8003fd0 <main+0x714>
			// Map the coordinates to a 28x28 area using simplified fractions
			int mapped_x = (point.x * X_SCALE_NUM) / X_SCALE_DEN;
			int mapped_y = (point.y * Y_SCALE_NUM) / Y_SCALE_DEN;

			// Draw a 2x2 square around the mapped point
			for (dy = -1; dy <= 1; dy++) {
 800403c:	e0bcd917 	ldw	r2,-3228(fp)
 8004040:	10800044 	addi	r2,r2,1
 8004044:	e0bcd915 	stw	r2,-3228(fp)
 8004048:	e0bcd917 	ldw	r2,-3228(fp)
 800404c:	10800090 	cmplti	r2,r2,2
 8004050:	103fce1e 	bne	r2,zero,8003f8c <main+0x6d0>
//					} else
					LTMDisp[row_start + new_x] = 0xFFFFFF;
				}
			}
		}
    }
 8004054:	003eb606 	br	8003b30 <main+0x274>

08004058 <expf>:
 8004058:	defff304 	addi	sp,sp,-52
 800405c:	dc800b15 	stw	r18,44(sp)
 8004060:	048200b4 	movhi	r18,2050
 8004064:	94aabf04 	addi	r18,r18,-21764
 8004068:	dc400a15 	stw	r17,40(sp)
 800406c:	dc000915 	stw	r16,36(sp)
 8004070:	dfc00c15 	stw	ra,48(sp)
 8004074:	2021883a 	mov	r16,r4
 8004078:	80042040 	call	8004204 <__ieee754_expf>
 800407c:	90c00017 	ldw	r3,0(r18)
 8004080:	1023883a 	mov	r17,r2
 8004084:	00bfffc4 	movi	r2,-1
 8004088:	18802926 	beq	r3,r2,8004130 <expf+0xd8>
 800408c:	8009883a 	mov	r4,r16
 8004090:	80045680 	call	8004568 <finitef>
 8004094:	10002626 	beq	r2,zero,8004130 <expf+0xd8>
 8004098:	8009883a 	mov	r4,r16
 800409c:	0150ac74 	movhi	r5,17073
 80040a0:	295c6004 	addi	r5,r5,29056
 80040a4:	8004b900 	call	8004b90 <__gtsf2>
 80040a8:	0080280e 	bge	zero,r2,800414c <expf+0xf4>
 80040ac:	008000c4 	movi	r2,3
 80040b0:	00c200b4 	movhi	r3,2050
 80040b4:	18e0ba04 	addi	r3,r3,-32024
 80040b8:	8009883a 	mov	r4,r16
 80040bc:	d8800015 	stw	r2,0(sp)
 80040c0:	d8c00115 	stw	r3,4(sp)
 80040c4:	d8000815 	stw	zero,32(sp)
 80040c8:	8004dac0 	call	8004dac <__extendsfdf2>
 80040cc:	91800017 	ldw	r6,0(r18)
 80040d0:	d8c00315 	stw	r3,12(sp)
 80040d4:	d8800415 	stw	r2,16(sp)
 80040d8:	d8c00515 	stw	r3,20(sp)
 80040dc:	d8800215 	stw	r2,8(sp)
 80040e0:	30004226 	beq	r6,zero,80041ec <expf+0x194>
 80040e4:	009ffc34 	movhi	r2,32752
 80040e8:	d8800715 	stw	r2,28(sp)
 80040ec:	00800084 	movi	r2,2
 80040f0:	d8000615 	stw	zero,24(sp)
 80040f4:	30802b1e 	bne	r6,r2,80041a4 <expf+0x14c>
 80040f8:	80067a00 	call	80067a0 <__errno>
 80040fc:	00c00884 	movi	r3,34
 8004100:	10c00015 	stw	r3,0(r2)
 8004104:	d8800817 	ldw	r2,32(sp)
 8004108:	10002b26 	beq	r2,zero,80041b8 <expf+0x160>
 800410c:	80067a00 	call	80067a0 <__errno>
 8004110:	d8c00817 	ldw	r3,32(sp)
 8004114:	10c00015 	stw	r3,0(r2)
 8004118:	d8800617 	ldw	r2,24(sp)
 800411c:	d8c00717 	ldw	r3,28(sp)
 8004120:	1009883a 	mov	r4,r2
 8004124:	180b883a 	mov	r5,r3
 8004128:	8005b280 	call	8005b28 <__truncdfsf2>
 800412c:	1023883a 	mov	r17,r2
 8004130:	8805883a 	mov	r2,r17
 8004134:	dfc00c17 	ldw	ra,48(sp)
 8004138:	dc800b17 	ldw	r18,44(sp)
 800413c:	dc400a17 	ldw	r17,40(sp)
 8004140:	dc000917 	ldw	r16,36(sp)
 8004144:	dec00d04 	addi	sp,sp,52
 8004148:	f800283a 	ret
 800414c:	8009883a 	mov	r4,r16
 8004150:	0170b434 	movhi	r5,49872
 8004154:	297c6d44 	addi	r5,r5,-3659
 8004158:	8004c080 	call	8004c08 <__ltsf2>
 800415c:	103ff40e 	bge	r2,zero,8004130 <expf+0xd8>
 8004160:	00800104 	movi	r2,4
 8004164:	00c200b4 	movhi	r3,2050
 8004168:	18e0ba04 	addi	r3,r3,-32024
 800416c:	8009883a 	mov	r4,r16
 8004170:	d8800015 	stw	r2,0(sp)
 8004174:	d8c00115 	stw	r3,4(sp)
 8004178:	d8000815 	stw	zero,32(sp)
 800417c:	8004dac0 	call	8004dac <__extendsfdf2>
 8004180:	91800017 	ldw	r6,0(r18)
 8004184:	d8800415 	stw	r2,16(sp)
 8004188:	d8800215 	stw	r2,8(sp)
 800418c:	00800084 	movi	r2,2
 8004190:	d8c00315 	stw	r3,12(sp)
 8004194:	d8c00515 	stw	r3,20(sp)
 8004198:	d8000615 	stw	zero,24(sp)
 800419c:	d8000715 	stw	zero,28(sp)
 80041a0:	30bfd526 	beq	r6,r2,80040f8 <expf+0xa0>
 80041a4:	d809883a 	mov	r4,sp
 80041a8:	80045600 	call	8004560 <matherr>
 80041ac:	103fd226 	beq	r2,zero,80040f8 <expf+0xa0>
 80041b0:	d8800817 	ldw	r2,32(sp)
 80041b4:	103fd51e 	bne	r2,zero,800410c <expf+0xb4>
 80041b8:	d8800617 	ldw	r2,24(sp)
 80041bc:	d8c00717 	ldw	r3,28(sp)
 80041c0:	1009883a 	mov	r4,r2
 80041c4:	180b883a 	mov	r5,r3
 80041c8:	8005b280 	call	8005b28 <__truncdfsf2>
 80041cc:	1023883a 	mov	r17,r2
 80041d0:	8805883a 	mov	r2,r17
 80041d4:	dfc00c17 	ldw	ra,48(sp)
 80041d8:	dc800b17 	ldw	r18,44(sp)
 80041dc:	dc400a17 	ldw	r17,40(sp)
 80041e0:	dc000917 	ldw	r16,36(sp)
 80041e4:	dec00d04 	addi	sp,sp,52
 80041e8:	f800283a 	ret
 80041ec:	00b80034 	movhi	r2,57344
 80041f0:	00d1fc34 	movhi	r3,18416
 80041f4:	18ffffc4 	addi	r3,r3,-1
 80041f8:	d8800615 	stw	r2,24(sp)
 80041fc:	d8c00715 	stw	r3,28(sp)
 8004200:	003fe806 	br	80041a4 <expf+0x14c>

08004204 <__ieee754_expf>:
 8004204:	00a00034 	movhi	r2,32768
 8004208:	10bfffc4 	addi	r2,r2,-1
 800420c:	defff904 	addi	sp,sp,-28
 8004210:	208a703a 	and	r5,r4,r2
 8004214:	009fe034 	movhi	r2,32640
 8004218:	dd000415 	stw	r20,16(sp)
 800421c:	dcc00315 	stw	r19,12(sp)
 8004220:	dc400115 	stw	r17,4(sp)
 8004224:	dfc00615 	stw	ra,24(sp)
 8004228:	dd400515 	stw	r21,20(sp)
 800422c:	dc800215 	stw	r18,8(sp)
 8004230:	dc000015 	stw	r16,0(sp)
 8004234:	2023883a 	mov	r17,r4
 8004238:	0027883a 	mov	r19,zero
 800423c:	0029883a 	mov	r20,zero
 8004240:	11400d2e 	bgeu	r2,r5,8004278 <__ieee754_expf+0x74>
 8004244:	200b883a 	mov	r5,r4
 8004248:	80047d80 	call	80047d8 <__addsf3>
 800424c:	1023883a 	mov	r17,r2
 8004250:	8805883a 	mov	r2,r17
 8004254:	dfc00617 	ldw	ra,24(sp)
 8004258:	dd400517 	ldw	r21,20(sp)
 800425c:	dd000417 	ldw	r20,16(sp)
 8004260:	dcc00317 	ldw	r19,12(sp)
 8004264:	dc800217 	ldw	r18,8(sp)
 8004268:	dc400117 	ldw	r17,4(sp)
 800426c:	dc000017 	ldw	r16,0(sp)
 8004270:	dec00704 	addi	sp,sp,28
 8004274:	f800283a 	ret
 8004278:	2024d7fa 	srli	r18,r4,31
 800427c:	28803326 	beq	r5,r2,800434c <__ieee754_expf+0x148>
 8004280:	0090ac74 	movhi	r2,17073
 8004284:	109c85c4 	addi	r2,r2,29207
 8004288:	11002a16 	blt	r2,r4,8004334 <__ieee754_expf+0x130>
 800428c:	2000a816 	blt	r4,zero,8004530 <__ieee754_expf+0x32c>
 8004290:	008fac74 	movhi	r2,16049
 8004294:	109c8604 	addi	r2,r2,29208
 8004298:	1140302e 	bgeu	r2,r5,800435c <__ieee754_expf+0x158>
 800429c:	008fe174 	movhi	r2,16261
 80042a0:	10856444 	addi	r2,r2,5521
 80042a4:	11407a2e 	bgeu	r2,r5,8004490 <__ieee754_expf+0x28c>
 80042a8:	8809883a 	mov	r4,r17
 80042ac:	014fee74 	movhi	r5,16313
 80042b0:	296a8ec4 	addi	r5,r5,-21957
 80042b4:	800483c0 	call	800483c <__mulsf3>
 80042b8:	9487883a 	add	r3,r18,r18
 80042bc:	d1200504 	addi	r4,gp,-32748
 80042c0:	18c7883a 	add	r3,r3,r3
 80042c4:	1907883a 	add	r3,r3,r4
 80042c8:	19400017 	ldw	r5,0(r3)
 80042cc:	1009883a 	mov	r4,r2
 80042d0:	80047d80 	call	80047d8 <__addsf3>
 80042d4:	1009883a 	mov	r4,r2
 80042d8:	8004d180 	call	8004d18 <__fixsfsi>
 80042dc:	1009883a 	mov	r4,r2
 80042e0:	102b883a 	mov	r21,r2
 80042e4:	8004c800 	call	8004c80 <__floatsisf>
 80042e8:	1009883a 	mov	r4,r2
 80042ec:	014fcc74 	movhi	r5,16177
 80042f0:	295c6004 	addi	r5,r5,29056
 80042f4:	1021883a 	mov	r16,r2
 80042f8:	800483c0 	call	800483c <__mulsf3>
 80042fc:	100b883a 	mov	r5,r2
 8004300:	8809883a 	mov	r4,r17
 8004304:	80047680 	call	8004768 <__subsf3>
 8004308:	8009883a 	mov	r4,r16
 800430c:	014dc634 	movhi	r5,14104
 8004310:	297df444 	addi	r5,r5,-2095
 8004314:	1029883a 	mov	r20,r2
 8004318:	800483c0 	call	800483c <__mulsf3>
 800431c:	1027883a 	mov	r19,r2
 8004320:	a009883a 	mov	r4,r20
 8004324:	980b883a 	mov	r5,r19
 8004328:	80047680 	call	8004768 <__subsf3>
 800432c:	1023883a 	mov	r17,r2
 8004330:	00000e06 	br	800436c <__ieee754_expf+0x168>
 8004334:	011c52b4 	movhi	r4,29002
 8004338:	213cb284 	addi	r4,r4,-3382
 800433c:	200b883a 	mov	r5,r4
 8004340:	800483c0 	call	800483c <__mulsf3>
 8004344:	1023883a 	mov	r17,r2
 8004348:	003fc106 	br	8004250 <__ieee754_expf+0x4c>
 800434c:	9005003a 	cmpeq	r2,r18,zero
 8004350:	103fbf1e 	bne	r2,zero,8004250 <__ieee754_expf+0x4c>
 8004354:	0023883a 	mov	r17,zero
 8004358:	003fbd06 	br	8004250 <__ieee754_expf+0x4c>
 800435c:	008c6034 	movhi	r2,12672
 8004360:	10bfffc4 	addi	r2,r2,-1
 8004364:	11403c2e 	bgeu	r2,r5,8004458 <__ieee754_expf+0x254>
 8004368:	002b883a 	mov	r21,zero
 800436c:	880b883a 	mov	r5,r17
 8004370:	8809883a 	mov	r4,r17
 8004374:	800483c0 	call	800483c <__mulsf3>
 8004378:	1009883a 	mov	r4,r2
 800437c:	014cccb4 	movhi	r5,13106
 8004380:	296ed304 	addi	r5,r5,-17588
 8004384:	1021883a 	mov	r16,r2
 8004388:	800483c0 	call	800483c <__mulsf3>
 800438c:	1009883a 	mov	r4,r2
 8004390:	014d77b4 	movhi	r5,13790
 8004394:	297a8384 	addi	r5,r5,-5618
 8004398:	80047680 	call	8004768 <__subsf3>
 800439c:	100b883a 	mov	r5,r2
 80043a0:	8009883a 	mov	r4,r16
 80043a4:	800483c0 	call	800483c <__mulsf3>
 80043a8:	1009883a 	mov	r4,r2
 80043ac:	014e22f4 	movhi	r5,14475
 80043b0:	296cd544 	addi	r5,r5,-19627
 80043b4:	80047d80 	call	80047d8 <__addsf3>
 80043b8:	100b883a 	mov	r5,r2
 80043bc:	8009883a 	mov	r4,r16
 80043c0:	800483c0 	call	800483c <__mulsf3>
 80043c4:	1009883a 	mov	r4,r2
 80043c8:	014ecdb4 	movhi	r5,15158
 80043cc:	2942d844 	addi	r5,r5,2913
 80043d0:	80047680 	call	8004768 <__subsf3>
 80043d4:	100b883a 	mov	r5,r2
 80043d8:	8009883a 	mov	r4,r16
 80043dc:	800483c0 	call	800483c <__mulsf3>
 80043e0:	1009883a 	mov	r4,r2
 80043e4:	014f8af4 	movhi	r5,15915
 80043e8:	296aaac4 	addi	r5,r5,-21845
 80043ec:	80047d80 	call	80047d8 <__addsf3>
 80043f0:	100b883a 	mov	r5,r2
 80043f4:	8009883a 	mov	r4,r16
 80043f8:	800483c0 	call	800483c <__mulsf3>
 80043fc:	100b883a 	mov	r5,r2
 8004400:	8809883a 	mov	r4,r17
 8004404:	80047680 	call	8004768 <__subsf3>
 8004408:	1025883a 	mov	r18,r2
 800440c:	a8002f1e 	bne	r21,zero,80044cc <__ieee754_expf+0x2c8>
 8004410:	8809883a 	mov	r4,r17
 8004414:	100b883a 	mov	r5,r2
 8004418:	800483c0 	call	800483c <__mulsf3>
 800441c:	9009883a 	mov	r4,r18
 8004420:	01500034 	movhi	r5,16384
 8004424:	1021883a 	mov	r16,r2
 8004428:	80047680 	call	8004768 <__subsf3>
 800442c:	100b883a 	mov	r5,r2
 8004430:	8009883a 	mov	r4,r16
 8004434:	8004a1c0 	call	8004a1c <__divsf3>
 8004438:	1009883a 	mov	r4,r2
 800443c:	880b883a 	mov	r5,r17
 8004440:	80047680 	call	8004768 <__subsf3>
 8004444:	100b883a 	mov	r5,r2
 8004448:	010fe034 	movhi	r4,16256
 800444c:	80047680 	call	8004768 <__subsf3>
 8004450:	1023883a 	mov	r17,r2
 8004454:	003f7e06 	br	8004250 <__ieee754_expf+0x4c>
 8004458:	8809883a 	mov	r4,r17
 800445c:	015c52b4 	movhi	r5,29002
 8004460:	297cb284 	addi	r5,r5,-3382
 8004464:	80047d80 	call	80047d8 <__addsf3>
 8004468:	040fe034 	movhi	r16,16256
 800446c:	1009883a 	mov	r4,r2
 8004470:	800b883a 	mov	r5,r16
 8004474:	8004b900 	call	8004b90 <__gtsf2>
 8004478:	00bfbc0e 	bge	zero,r2,800436c <__ieee754_expf+0x168>
 800447c:	8809883a 	mov	r4,r17
 8004480:	800b883a 	mov	r5,r16
 8004484:	80047d80 	call	80047d8 <__addsf3>
 8004488:	1023883a 	mov	r17,r2
 800448c:	003f7006 	br	8004250 <__ieee754_expf+0x4c>
 8004490:	94a1883a 	add	r16,r18,r18
 8004494:	8421883a 	add	r16,r16,r16
 8004498:	d0a00104 	addi	r2,gp,-32764
 800449c:	8085883a 	add	r2,r16,r2
 80044a0:	11400017 	ldw	r5,0(r2)
 80044a4:	8809883a 	mov	r4,r17
 80044a8:	80047680 	call	8004768 <__subsf3>
 80044ac:	1029883a 	mov	r20,r2
 80044b0:	d0a00304 	addi	r2,gp,-32756
 80044b4:	80a1883a 	add	r16,r16,r2
 80044b8:	84c00017 	ldw	r19,0(r16)
 80044bc:	0485c83a 	sub	r2,zero,r18
 80044c0:	1485c83a 	sub	r2,r2,r18
 80044c4:	15400044 	addi	r21,r2,1
 80044c8:	003f9506 	br	8004320 <__ieee754_expf+0x11c>
 80044cc:	8809883a 	mov	r4,r17
 80044d0:	100b883a 	mov	r5,r2
 80044d4:	800483c0 	call	800483c <__mulsf3>
 80044d8:	900b883a 	mov	r5,r18
 80044dc:	01100034 	movhi	r4,16384
 80044e0:	1021883a 	mov	r16,r2
 80044e4:	80047680 	call	8004768 <__subsf3>
 80044e8:	100b883a 	mov	r5,r2
 80044ec:	8009883a 	mov	r4,r16
 80044f0:	8004a1c0 	call	8004a1c <__divsf3>
 80044f4:	100b883a 	mov	r5,r2
 80044f8:	9809883a 	mov	r4,r19
 80044fc:	80047680 	call	8004768 <__subsf3>
 8004500:	1009883a 	mov	r4,r2
 8004504:	a00b883a 	mov	r5,r20
 8004508:	80047680 	call	8004768 <__subsf3>
 800450c:	100b883a 	mov	r5,r2
 8004510:	010fe034 	movhi	r4,16256
 8004514:	80047680 	call	8004768 <__subsf3>
 8004518:	1007883a 	mov	r3,r2
 800451c:	00bfe0c4 	movi	r2,-125
 8004520:	a8800816 	blt	r21,r2,8004544 <__ieee754_expf+0x340>
 8004524:	a80495fa 	slli	r2,r21,23
 8004528:	10e3883a 	add	r17,r2,r3
 800452c:	003f4806 	br	8004250 <__ieee754_expf+0x4c>
 8004530:	0090b434 	movhi	r2,17104
 8004534:	10bc6d44 	addi	r2,r2,-3659
 8004538:	117f552e 	bgeu	r2,r5,8004290 <__ieee754_expf+0x8c>
 800453c:	0023883a 	mov	r17,zero
 8004540:	003f4306 	br	8004250 <__ieee754_expf+0x4c>
 8004544:	a9401904 	addi	r5,r21,100
 8004548:	280a95fa 	slli	r5,r5,23
 800454c:	01036034 	movhi	r4,3456
 8004550:	28cb883a 	add	r5,r5,r3
 8004554:	800483c0 	call	800483c <__mulsf3>
 8004558:	1023883a 	mov	r17,r2
 800455c:	003f3c06 	br	8004250 <__ieee754_expf+0x4c>

08004560 <matherr>:
 8004560:	0005883a 	mov	r2,zero
 8004564:	f800283a 	ret

08004568 <finitef>:
 8004568:	00a00034 	movhi	r2,32768
 800456c:	10bfffc4 	addi	r2,r2,-1
 8004570:	2088703a 	and	r4,r4,r2
 8004574:	009fe034 	movhi	r2,32640
 8004578:	10bfffc4 	addi	r2,r2,-1
 800457c:	1104403a 	cmpge	r2,r2,r4
 8004580:	f800283a 	ret

08004584 <_fpadd_parts>:
 8004584:	21c00017 	ldw	r7,0(r4)
 8004588:	02000044 	movi	r8,1
 800458c:	41c0332e 	bgeu	r8,r7,800465c <_fpadd_parts+0xd8>
 8004590:	28800017 	ldw	r2,0(r5)
 8004594:	4080462e 	bgeu	r8,r2,80046b0 <_fpadd_parts+0x12c>
 8004598:	00c00104 	movi	r3,4
 800459c:	38c06b26 	beq	r7,r3,800474c <_fpadd_parts+0x1c8>
 80045a0:	10c04326 	beq	r2,r3,80046b0 <_fpadd_parts+0x12c>
 80045a4:	00c00084 	movi	r3,2
 80045a8:	10c02e26 	beq	r2,r3,8004664 <_fpadd_parts+0xe0>
 80045ac:	38c04026 	beq	r7,r3,80046b0 <_fpadd_parts+0x12c>
 80045b0:	22800217 	ldw	r10,8(r4)
 80045b4:	28c00217 	ldw	r3,8(r5)
 80045b8:	23000317 	ldw	r12,12(r4)
 80045bc:	2a400317 	ldw	r9,12(r5)
 80045c0:	50cfc83a 	sub	r7,r10,r3
 80045c4:	3817883a 	mov	r11,r7
 80045c8:	38004f16 	blt	r7,zero,8004708 <_fpadd_parts+0x184>
 80045cc:	008007c4 	movi	r2,31
 80045d0:	11c03316 	blt	r2,r7,80046a0 <_fpadd_parts+0x11c>
 80045d4:	02c0540e 	bge	zero,r11,8004728 <_fpadd_parts+0x1a4>
 80045d8:	41c4983a 	sll	r2,r8,r7
 80045dc:	49c6d83a 	srl	r3,r9,r7
 80045e0:	10bfffc4 	addi	r2,r2,-1
 80045e4:	4884703a 	and	r2,r9,r2
 80045e8:	1004c03a 	cmpne	r2,r2,zero
 80045ec:	1892b03a 	or	r9,r3,r2
 80045f0:	20c00117 	ldw	r3,4(r4)
 80045f4:	28800117 	ldw	r2,4(r5)
 80045f8:	18803c26 	beq	r3,r2,80046ec <_fpadd_parts+0x168>
 80045fc:	18002f26 	beq	r3,zero,80046bc <_fpadd_parts+0x138>
 8004600:	4b05c83a 	sub	r2,r9,r12
 8004604:	10004216 	blt	r2,zero,8004710 <_fpadd_parts+0x18c>
 8004608:	32800215 	stw	r10,8(r6)
 800460c:	30800315 	stw	r2,12(r6)
 8004610:	30000115 	stw	zero,4(r6)
 8004614:	31000317 	ldw	r4,12(r6)
 8004618:	01d00034 	movhi	r7,16384
 800461c:	39ffff84 	addi	r7,r7,-2
 8004620:	20bfffc4 	addi	r2,r4,-1
 8004624:	2007883a 	mov	r3,r4
 8004628:	38800836 	bltu	r7,r2,800464c <_fpadd_parts+0xc8>
 800462c:	31400217 	ldw	r5,8(r6)
 8004630:	18c9883a 	add	r4,r3,r3
 8004634:	20bfffc4 	addi	r2,r4,-1
 8004638:	297fffc4 	addi	r5,r5,-1
 800463c:	2007883a 	mov	r3,r4
 8004640:	38bffb2e 	bgeu	r7,r2,8004630 <_fpadd_parts+0xac>
 8004644:	31400215 	stw	r5,8(r6)
 8004648:	31000315 	stw	r4,12(r6)
 800464c:	008000c4 	movi	r2,3
 8004650:	30800015 	stw	r2,0(r6)
 8004654:	20001b16 	blt	r4,zero,80046c4 <_fpadd_parts+0x140>
 8004658:	3009883a 	mov	r4,r6
 800465c:	2005883a 	mov	r2,r4
 8004660:	f800283a 	ret
 8004664:	38fffd1e 	bne	r7,r3,800465c <_fpadd_parts+0xd8>
 8004668:	31c00015 	stw	r7,0(r6)
 800466c:	20800117 	ldw	r2,4(r4)
 8004670:	30800115 	stw	r2,4(r6)
 8004674:	20c00217 	ldw	r3,8(r4)
 8004678:	30c00215 	stw	r3,8(r6)
 800467c:	20800317 	ldw	r2,12(r4)
 8004680:	30800315 	stw	r2,12(r6)
 8004684:	20c00117 	ldw	r3,4(r4)
 8004688:	28800117 	ldw	r2,4(r5)
 800468c:	3009883a 	mov	r4,r6
 8004690:	1886703a 	and	r3,r3,r2
 8004694:	2005883a 	mov	r2,r4
 8004698:	30c00115 	stw	r3,4(r6)
 800469c:	f800283a 	ret
 80046a0:	1a801716 	blt	r3,r10,8004700 <_fpadd_parts+0x17c>
 80046a4:	1815883a 	mov	r10,r3
 80046a8:	0019883a 	mov	r12,zero
 80046ac:	003fd006 	br	80045f0 <_fpadd_parts+0x6c>
 80046b0:	2809883a 	mov	r4,r5
 80046b4:	2005883a 	mov	r2,r4
 80046b8:	f800283a 	ret
 80046bc:	6245c83a 	sub	r2,r12,r9
 80046c0:	003fd006 	br	8004604 <_fpadd_parts+0x80>
 80046c4:	30800217 	ldw	r2,8(r6)
 80046c8:	2006d07a 	srli	r3,r4,1
 80046cc:	2100004c 	andi	r4,r4,1
 80046d0:	10800044 	addi	r2,r2,1
 80046d4:	1906b03a 	or	r3,r3,r4
 80046d8:	3009883a 	mov	r4,r6
 80046dc:	30800215 	stw	r2,8(r6)
 80046e0:	2005883a 	mov	r2,r4
 80046e4:	30c00315 	stw	r3,12(r6)
 80046e8:	f800283a 	ret
 80046ec:	4b09883a 	add	r4,r9,r12
 80046f0:	30c00115 	stw	r3,4(r6)
 80046f4:	32800215 	stw	r10,8(r6)
 80046f8:	31000315 	stw	r4,12(r6)
 80046fc:	003fd306 	br	800464c <_fpadd_parts+0xc8>
 8004700:	0013883a 	mov	r9,zero
 8004704:	003fba06 	br	80045f0 <_fpadd_parts+0x6c>
 8004708:	01cfc83a 	sub	r7,zero,r7
 800470c:	003faf06 	br	80045cc <_fpadd_parts+0x48>
 8004710:	0089c83a 	sub	r4,zero,r2
 8004714:	00800044 	movi	r2,1
 8004718:	30800115 	stw	r2,4(r6)
 800471c:	32800215 	stw	r10,8(r6)
 8004720:	31000315 	stw	r4,12(r6)
 8004724:	003fbb06 	br	8004614 <_fpadd_parts+0x90>
 8004728:	583fb126 	beq	r11,zero,80045f0 <_fpadd_parts+0x6c>
 800472c:	41c4983a 	sll	r2,r8,r7
 8004730:	61c6d83a 	srl	r3,r12,r7
 8004734:	51d5883a 	add	r10,r10,r7
 8004738:	10bfffc4 	addi	r2,r2,-1
 800473c:	6084703a 	and	r2,r12,r2
 8004740:	1004c03a 	cmpne	r2,r2,zero
 8004744:	1898b03a 	or	r12,r3,r2
 8004748:	003fa906 	br	80045f0 <_fpadd_parts+0x6c>
 800474c:	11ffc31e 	bne	r2,r7,800465c <_fpadd_parts+0xd8>
 8004750:	28c00117 	ldw	r3,4(r5)
 8004754:	20800117 	ldw	r2,4(r4)
 8004758:	10ffc026 	beq	r2,r3,800465c <_fpadd_parts+0xd8>
 800475c:	010200b4 	movhi	r4,2050
 8004760:	2120bc04 	addi	r4,r4,-32016
 8004764:	003fbd06 	br	800465c <_fpadd_parts+0xd8>

08004768 <__subsf3>:
 8004768:	deffef04 	addi	sp,sp,-68
 800476c:	dcc00f15 	stw	r19,60(sp)
 8004770:	dcc00204 	addi	r19,sp,8
 8004774:	dc400e15 	stw	r17,56(sp)
 8004778:	d9000015 	stw	r4,0(sp)
 800477c:	d9400115 	stw	r5,4(sp)
 8004780:	d809883a 	mov	r4,sp
 8004784:	980b883a 	mov	r5,r19
 8004788:	dc400604 	addi	r17,sp,24
 800478c:	dfc01015 	stw	ra,64(sp)
 8004790:	80061b80 	call	80061b8 <__unpack_f>
 8004794:	d9000104 	addi	r4,sp,4
 8004798:	880b883a 	mov	r5,r17
 800479c:	80061b80 	call	80061b8 <__unpack_f>
 80047a0:	d8800717 	ldw	r2,28(sp)
 80047a4:	9809883a 	mov	r4,r19
 80047a8:	880b883a 	mov	r5,r17
 80047ac:	d9800a04 	addi	r6,sp,40
 80047b0:	1080005c 	xori	r2,r2,1
 80047b4:	d8800715 	stw	r2,28(sp)
 80047b8:	80045840 	call	8004584 <_fpadd_parts>
 80047bc:	1009883a 	mov	r4,r2
 80047c0:	80060580 	call	8006058 <__pack_f>
 80047c4:	dfc01017 	ldw	ra,64(sp)
 80047c8:	dcc00f17 	ldw	r19,60(sp)
 80047cc:	dc400e17 	ldw	r17,56(sp)
 80047d0:	dec01104 	addi	sp,sp,68
 80047d4:	f800283a 	ret

080047d8 <__addsf3>:
 80047d8:	deffef04 	addi	sp,sp,-68
 80047dc:	dcc00f15 	stw	r19,60(sp)
 80047e0:	dcc00204 	addi	r19,sp,8
 80047e4:	dc400e15 	stw	r17,56(sp)
 80047e8:	d9000015 	stw	r4,0(sp)
 80047ec:	d9400115 	stw	r5,4(sp)
 80047f0:	d809883a 	mov	r4,sp
 80047f4:	980b883a 	mov	r5,r19
 80047f8:	dc400604 	addi	r17,sp,24
 80047fc:	dfc01015 	stw	ra,64(sp)
 8004800:	80061b80 	call	80061b8 <__unpack_f>
 8004804:	d9000104 	addi	r4,sp,4
 8004808:	880b883a 	mov	r5,r17
 800480c:	80061b80 	call	80061b8 <__unpack_f>
 8004810:	d9800a04 	addi	r6,sp,40
 8004814:	9809883a 	mov	r4,r19
 8004818:	880b883a 	mov	r5,r17
 800481c:	80045840 	call	8004584 <_fpadd_parts>
 8004820:	1009883a 	mov	r4,r2
 8004824:	80060580 	call	8006058 <__pack_f>
 8004828:	dfc01017 	ldw	ra,64(sp)
 800482c:	dcc00f17 	ldw	r19,60(sp)
 8004830:	dc400e17 	ldw	r17,56(sp)
 8004834:	dec01104 	addi	sp,sp,68
 8004838:	f800283a 	ret

0800483c <__mulsf3>:
 800483c:	deffef04 	addi	sp,sp,-68
 8004840:	dc400f15 	stw	r17,60(sp)
 8004844:	dc400204 	addi	r17,sp,8
 8004848:	dc000e15 	stw	r16,56(sp)
 800484c:	d9000015 	stw	r4,0(sp)
 8004850:	d9400115 	stw	r5,4(sp)
 8004854:	d809883a 	mov	r4,sp
 8004858:	880b883a 	mov	r5,r17
 800485c:	dc000604 	addi	r16,sp,24
 8004860:	dfc01015 	stw	ra,64(sp)
 8004864:	80061b80 	call	80061b8 <__unpack_f>
 8004868:	d9000104 	addi	r4,sp,4
 800486c:	800b883a 	mov	r5,r16
 8004870:	80061b80 	call	80061b8 <__unpack_f>
 8004874:	d9000217 	ldw	r4,8(sp)
 8004878:	00800044 	movi	r2,1
 800487c:	01400104 	movi	r5,4
 8004880:	1100142e 	bgeu	r2,r4,80048d4 <__mulsf3+0x98>
 8004884:	d8c00617 	ldw	r3,24(sp)
 8004888:	10c0052e 	bgeu	r2,r3,80048a0 <__mulsf3+0x64>
 800488c:	21400f26 	beq	r4,r5,80048cc <__mulsf3+0x90>
 8004890:	19405d26 	beq	r3,r5,8004a08 <__mulsf3+0x1cc>
 8004894:	00800084 	movi	r2,2
 8004898:	20800e26 	beq	r4,r2,80048d4 <__mulsf3+0x98>
 800489c:	1880181e 	bne	r3,r2,8004900 <__mulsf3+0xc4>
 80048a0:	d8c00717 	ldw	r3,28(sp)
 80048a4:	d8800317 	ldw	r2,12(sp)
 80048a8:	8009883a 	mov	r4,r16
 80048ac:	10c4c03a 	cmpne	r2,r2,r3
 80048b0:	d8800715 	stw	r2,28(sp)
 80048b4:	80060580 	call	8006058 <__pack_f>
 80048b8:	dfc01017 	ldw	ra,64(sp)
 80048bc:	dc400f17 	ldw	r17,60(sp)
 80048c0:	dc000e17 	ldw	r16,56(sp)
 80048c4:	dec01104 	addi	sp,sp,68
 80048c8:	f800283a 	ret
 80048cc:	00800084 	movi	r2,2
 80048d0:	18804f26 	beq	r3,r2,8004a10 <__mulsf3+0x1d4>
 80048d4:	d8800317 	ldw	r2,12(sp)
 80048d8:	d8c00717 	ldw	r3,28(sp)
 80048dc:	8809883a 	mov	r4,r17
 80048e0:	10c4c03a 	cmpne	r2,r2,r3
 80048e4:	d8800315 	stw	r2,12(sp)
 80048e8:	80060580 	call	8006058 <__pack_f>
 80048ec:	dfc01017 	ldw	ra,64(sp)
 80048f0:	dc400f17 	ldw	r17,60(sp)
 80048f4:	dc000e17 	ldw	r16,56(sp)
 80048f8:	dec01104 	addi	sp,sp,68
 80048fc:	f800283a 	ret
 8004900:	d8800517 	ldw	r2,20(sp)
 8004904:	da000917 	ldw	r8,36(sp)
 8004908:	0013883a 	mov	r9,zero
 800490c:	0007883a 	mov	r3,zero
 8004910:	480f883a 	mov	r7,r9
 8004914:	180b883a 	mov	r5,r3
 8004918:	400d883a 	mov	r6,r8
 800491c:	1009883a 	mov	r4,r2
 8004920:	8005eb40 	call	8005eb4 <__muldi3>
 8004924:	da800417 	ldw	r10,16(sp)
 8004928:	d9800817 	ldw	r6,32(sp)
 800492c:	da400317 	ldw	r9,12(sp)
 8004930:	52800084 	addi	r10,r10,2
 8004934:	3295883a 	add	r10,r6,r10
 8004938:	d9800717 	ldw	r6,28(sp)
 800493c:	180b883a 	mov	r5,r3
 8004940:	180f883a 	mov	r7,r3
 8004944:	4992c03a 	cmpne	r9,r9,r6
 8004948:	da400b15 	stw	r9,44(sp)
 800494c:	1007883a 	mov	r3,r2
 8004950:	da800c15 	stw	r10,48(sp)
 8004954:	2800070e 	bge	r5,zero,8004974 <__mulsf3+0x138>
 8004958:	2880004c 	andi	r2,r5,1
 800495c:	1005003a 	cmpeq	r2,r2,zero
 8004960:	500d883a 	mov	r6,r10
 8004964:	10001e26 	beq	r2,zero,80049e0 <__mulsf3+0x1a4>
 8004968:	380ed07a 	srli	r7,r7,1
 800496c:	31800044 	addi	r6,r6,1
 8004970:	d9800c15 	stw	r6,48(sp)
 8004974:	01100034 	movhi	r4,16384
 8004978:	213fffc4 	addi	r4,r4,-1
 800497c:	21c00b36 	bltu	r4,r7,80049ac <__mulsf3+0x170>
 8004980:	d8800c17 	ldw	r2,48(sp)
 8004984:	00000206 	br	8004990 <__mulsf3+0x154>
 8004988:	18c7883a 	add	r3,r3,r3
 800498c:	21c00636 	bltu	r4,r7,80049a8 <__mulsf3+0x16c>
 8004990:	10bfffc4 	addi	r2,r2,-1
 8004994:	39cf883a 	add	r7,r7,r7
 8004998:	183ffb0e 	bge	r3,zero,8004988 <__mulsf3+0x14c>
 800499c:	39c00054 	ori	r7,r7,1
 80049a0:	18c7883a 	add	r3,r3,r3
 80049a4:	21fffa2e 	bgeu	r4,r7,8004990 <__mulsf3+0x154>
 80049a8:	d8800c15 	stw	r2,48(sp)
 80049ac:	39001fcc 	andi	r4,r7,127
 80049b0:	00801004 	movi	r2,64
 80049b4:	20800d26 	beq	r4,r2,80049ec <__mulsf3+0x1b0>
 80049b8:	008000c4 	movi	r2,3
 80049bc:	d9000a04 	addi	r4,sp,40
 80049c0:	d9c00d15 	stw	r7,52(sp)
 80049c4:	d8800a15 	stw	r2,40(sp)
 80049c8:	80060580 	call	8006058 <__pack_f>
 80049cc:	dfc01017 	ldw	ra,64(sp)
 80049d0:	dc400f17 	ldw	r17,60(sp)
 80049d4:	dc000e17 	ldw	r16,56(sp)
 80049d8:	dec01104 	addi	sp,sp,68
 80049dc:	f800283a 	ret
 80049e0:	1804d07a 	srli	r2,r3,1
 80049e4:	10e00034 	orhi	r3,r2,32768
 80049e8:	003fdf06 	br	8004968 <__mulsf3+0x12c>
 80049ec:	3880200c 	andi	r2,r7,128
 80049f0:	103ff11e 	bne	r2,zero,80049b8 <__mulsf3+0x17c>
 80049f4:	183ff026 	beq	r3,zero,80049b8 <__mulsf3+0x17c>
 80049f8:	3907883a 	add	r3,r7,r4
 80049fc:	00bfe004 	movi	r2,-128
 8004a00:	188e703a 	and	r7,r3,r2
 8004a04:	003fec06 	br	80049b8 <__mulsf3+0x17c>
 8004a08:	00800084 	movi	r2,2
 8004a0c:	20bfa41e 	bne	r4,r2,80048a0 <__mulsf3+0x64>
 8004a10:	010200b4 	movhi	r4,2050
 8004a14:	2120bc04 	addi	r4,r4,-32016
 8004a18:	003fb306 	br	80048e8 <__mulsf3+0xac>

08004a1c <__divsf3>:
 8004a1c:	defff304 	addi	sp,sp,-52
 8004a20:	dc400b15 	stw	r17,44(sp)
 8004a24:	dc400204 	addi	r17,sp,8
 8004a28:	dc000a15 	stw	r16,40(sp)
 8004a2c:	d9000015 	stw	r4,0(sp)
 8004a30:	d9400115 	stw	r5,4(sp)
 8004a34:	d809883a 	mov	r4,sp
 8004a38:	880b883a 	mov	r5,r17
 8004a3c:	dc000604 	addi	r16,sp,24
 8004a40:	dfc00c15 	stw	ra,48(sp)
 8004a44:	80061b80 	call	80061b8 <__unpack_f>
 8004a48:	d9000104 	addi	r4,sp,4
 8004a4c:	800b883a 	mov	r5,r16
 8004a50:	80061b80 	call	80061b8 <__unpack_f>
 8004a54:	d9000217 	ldw	r4,8(sp)
 8004a58:	00800044 	movi	r2,1
 8004a5c:	01800104 	movi	r6,4
 8004a60:	11000a2e 	bgeu	r2,r4,8004a8c <__divsf3+0x70>
 8004a64:	d9400617 	ldw	r5,24(sp)
 8004a68:	1140432e 	bgeu	r2,r5,8004b78 <__divsf3+0x15c>
 8004a6c:	d8800317 	ldw	r2,12(sp)
 8004a70:	d8c00717 	ldw	r3,28(sp)
 8004a74:	10c4f03a 	xor	r2,r2,r3
 8004a78:	d8800315 	stw	r2,12(sp)
 8004a7c:	21800226 	beq	r4,r6,8004a88 <__divsf3+0x6c>
 8004a80:	00800084 	movi	r2,2
 8004a84:	2080101e 	bne	r4,r2,8004ac8 <__divsf3+0xac>
 8004a88:	29000726 	beq	r5,r4,8004aa8 <__divsf3+0x8c>
 8004a8c:	8809883a 	mov	r4,r17
 8004a90:	80060580 	call	8006058 <__pack_f>
 8004a94:	dfc00c17 	ldw	ra,48(sp)
 8004a98:	dc400b17 	ldw	r17,44(sp)
 8004a9c:	dc000a17 	ldw	r16,40(sp)
 8004aa0:	dec00d04 	addi	sp,sp,52
 8004aa4:	f800283a 	ret
 8004aa8:	010200b4 	movhi	r4,2050
 8004aac:	2120bc04 	addi	r4,r4,-32016
 8004ab0:	80060580 	call	8006058 <__pack_f>
 8004ab4:	dfc00c17 	ldw	ra,48(sp)
 8004ab8:	dc400b17 	ldw	r17,44(sp)
 8004abc:	dc000a17 	ldw	r16,40(sp)
 8004ac0:	dec00d04 	addi	sp,sp,52
 8004ac4:	f800283a 	ret
 8004ac8:	29802d26 	beq	r5,r6,8004b80 <__divsf3+0x164>
 8004acc:	28801a26 	beq	r5,r2,8004b38 <__divsf3+0x11c>
 8004ad0:	d8c00417 	ldw	r3,16(sp)
 8004ad4:	d8800817 	ldw	r2,32(sp)
 8004ad8:	d9000517 	ldw	r4,20(sp)
 8004adc:	d9800917 	ldw	r6,36(sp)
 8004ae0:	1885c83a 	sub	r2,r3,r2
 8004ae4:	d8800415 	stw	r2,16(sp)
 8004ae8:	2180032e 	bgeu	r4,r6,8004af8 <__divsf3+0xdc>
 8004aec:	10bfffc4 	addi	r2,r2,-1
 8004af0:	d8800415 	stw	r2,16(sp)
 8004af4:	2109883a 	add	r4,r4,r4
 8004af8:	01500034 	movhi	r5,16384
 8004afc:	0007883a 	mov	r3,zero
 8004b00:	0005883a 	mov	r2,zero
 8004b04:	01c007c4 	movi	r7,31
 8004b08:	10800044 	addi	r2,r2,1
 8004b0c:	21800236 	bltu	r4,r6,8004b18 <__divsf3+0xfc>
 8004b10:	1946b03a 	or	r3,r3,r5
 8004b14:	2189c83a 	sub	r4,r4,r6
 8004b18:	280ad07a 	srli	r5,r5,1
 8004b1c:	2109883a 	add	r4,r4,r4
 8004b20:	11fff91e 	bne	r2,r7,8004b08 <__divsf3+0xec>
 8004b24:	19401fcc 	andi	r5,r3,127
 8004b28:	00801004 	movi	r2,64
 8004b2c:	28800a26 	beq	r5,r2,8004b58 <__divsf3+0x13c>
 8004b30:	d8c00515 	stw	r3,20(sp)
 8004b34:	003fd506 	br	8004a8c <__divsf3+0x70>
 8004b38:	8809883a 	mov	r4,r17
 8004b3c:	d9800215 	stw	r6,8(sp)
 8004b40:	80060580 	call	8006058 <__pack_f>
 8004b44:	dfc00c17 	ldw	ra,48(sp)
 8004b48:	dc400b17 	ldw	r17,44(sp)
 8004b4c:	dc000a17 	ldw	r16,40(sp)
 8004b50:	dec00d04 	addi	sp,sp,52
 8004b54:	f800283a 	ret
 8004b58:	1880200c 	andi	r2,r3,128
 8004b5c:	103ff41e 	bne	r2,zero,8004b30 <__divsf3+0x114>
 8004b60:	203ff326 	beq	r4,zero,8004b30 <__divsf3+0x114>
 8004b64:	1947883a 	add	r3,r3,r5
 8004b68:	00bfe004 	movi	r2,-128
 8004b6c:	1886703a 	and	r3,r3,r2
 8004b70:	d8c00515 	stw	r3,20(sp)
 8004b74:	003fc506 	br	8004a8c <__divsf3+0x70>
 8004b78:	8009883a 	mov	r4,r16
 8004b7c:	003fc406 	br	8004a90 <__divsf3+0x74>
 8004b80:	8809883a 	mov	r4,r17
 8004b84:	d8000515 	stw	zero,20(sp)
 8004b88:	d8000415 	stw	zero,16(sp)
 8004b8c:	003fc006 	br	8004a90 <__divsf3+0x74>

08004b90 <__gtsf2>:
 8004b90:	defff304 	addi	sp,sp,-52
 8004b94:	dc400b15 	stw	r17,44(sp)
 8004b98:	dc400204 	addi	r17,sp,8
 8004b9c:	dc000a15 	stw	r16,40(sp)
 8004ba0:	d9000015 	stw	r4,0(sp)
 8004ba4:	d9400115 	stw	r5,4(sp)
 8004ba8:	d809883a 	mov	r4,sp
 8004bac:	880b883a 	mov	r5,r17
 8004bb0:	dc000604 	addi	r16,sp,24
 8004bb4:	dfc00c15 	stw	ra,48(sp)
 8004bb8:	80061b80 	call	80061b8 <__unpack_f>
 8004bbc:	d9000104 	addi	r4,sp,4
 8004bc0:	800b883a 	mov	r5,r16
 8004bc4:	80061b80 	call	80061b8 <__unpack_f>
 8004bc8:	d8800217 	ldw	r2,8(sp)
 8004bcc:	00c00044 	movi	r3,1
 8004bd0:	01bfffc4 	movi	r6,-1
 8004bd4:	1880062e 	bgeu	r3,r2,8004bf0 <__gtsf2+0x60>
 8004bd8:	d8800617 	ldw	r2,24(sp)
 8004bdc:	8809883a 	mov	r4,r17
 8004be0:	800b883a 	mov	r5,r16
 8004be4:	1880022e 	bgeu	r3,r2,8004bf0 <__gtsf2+0x60>
 8004be8:	80062800 	call	8006280 <__fpcmp_parts_f>
 8004bec:	100d883a 	mov	r6,r2
 8004bf0:	3005883a 	mov	r2,r6
 8004bf4:	dfc00c17 	ldw	ra,48(sp)
 8004bf8:	dc400b17 	ldw	r17,44(sp)
 8004bfc:	dc000a17 	ldw	r16,40(sp)
 8004c00:	dec00d04 	addi	sp,sp,52
 8004c04:	f800283a 	ret

08004c08 <__ltsf2>:
 8004c08:	defff304 	addi	sp,sp,-52
 8004c0c:	dc400b15 	stw	r17,44(sp)
 8004c10:	dc400204 	addi	r17,sp,8
 8004c14:	dc000a15 	stw	r16,40(sp)
 8004c18:	d9000015 	stw	r4,0(sp)
 8004c1c:	d9400115 	stw	r5,4(sp)
 8004c20:	d809883a 	mov	r4,sp
 8004c24:	880b883a 	mov	r5,r17
 8004c28:	dc000604 	addi	r16,sp,24
 8004c2c:	dfc00c15 	stw	ra,48(sp)
 8004c30:	80061b80 	call	80061b8 <__unpack_f>
 8004c34:	d9000104 	addi	r4,sp,4
 8004c38:	800b883a 	mov	r5,r16
 8004c3c:	80061b80 	call	80061b8 <__unpack_f>
 8004c40:	d8800217 	ldw	r2,8(sp)
 8004c44:	00c00044 	movi	r3,1
 8004c48:	180d883a 	mov	r6,r3
 8004c4c:	1880062e 	bgeu	r3,r2,8004c68 <__ltsf2+0x60>
 8004c50:	d8800617 	ldw	r2,24(sp)
 8004c54:	8809883a 	mov	r4,r17
 8004c58:	800b883a 	mov	r5,r16
 8004c5c:	1880022e 	bgeu	r3,r2,8004c68 <__ltsf2+0x60>
 8004c60:	80062800 	call	8006280 <__fpcmp_parts_f>
 8004c64:	100d883a 	mov	r6,r2
 8004c68:	3005883a 	mov	r2,r6
 8004c6c:	dfc00c17 	ldw	ra,48(sp)
 8004c70:	dc400b17 	ldw	r17,44(sp)
 8004c74:	dc000a17 	ldw	r16,40(sp)
 8004c78:	dec00d04 	addi	sp,sp,52
 8004c7c:	f800283a 	ret

08004c80 <__floatsisf>:
